
test_payload：     文件格式 elf64-littleriscv


Disassembly of section .text:

0000000080200000 <_start>:
    80200000:	10401073          	csrw	sie,zero
    80200004:	14401073          	csrw	sip,zero
    80200008:	000062b7          	lui	t0,0x6
    8020000c:	1002b073          	csrc	sstatus,t0
    80200010:	00007197          	auipc	gp,0x7
    80200014:	0a018193          	addi	gp,gp,160 # 802070b0 <__global_pointer$>
    80200018:	84018693          	addi	a3,gp,-1984 # 802068f0 <current_running>
    8020001c:	00008717          	auipc	a4,0x8
    80200020:	89470713          	addi	a4,a4,-1900 # 802078b0 <secret>
    80200024:	00e6d863          	bge	a3,a4,80200034 <clear_bss_done>

0000000080200028 <clear_bss>:
    80200028:	0006b023          	sd	zero,0(a3)
    8020002c:	00868693          	addi	a3,a3,8
    80200030:	fee6cce3          	blt	a3,a4,80200028 <clear_bss>

0000000080200034 <clear_bss_done>:
    80200034:	00006217          	auipc	tp,0x6
    80200038:	70c20213          	addi	tp,tp,1804 # 80206740 <pid0_pcb>
    8020003c:	8201b103          	ld	sp,-2016(gp) # 802068d0 <pid0_stack>
    80200040:	14001073          	csrw	sscratch,zero
    80200044:	7cc030ef          	jal	ra,80203810 <main>
    80200048:	00800893          	li	a7,8
    8020004c:	00000073          	ecall

0000000080200050 <invoke_syscall>:
    80200050:	00050893          	mv	a7,a0
    80200054:	00058513          	mv	a0,a1
    80200058:	00060593          	mv	a1,a2
    8020005c:	00068613          	mv	a2,a3
    80200060:	00000073          	ecall
    80200064:	00008067          	ret

0000000080200068 <setup_exception>:
    80200068:	00000297          	auipc	t0,0x0
    8020006c:	36028293          	addi	t0,t0,864 # 802003c8 <exception_handler_entry>
    80200070:	10529073          	csrw	stvec,t0
    80200074:	fff04293          	not	t0,zero
    80200078:	1042a073          	csrs	sie,t0
    8020007c:	00008067          	ret

0000000080200080 <enable_preempt>:
    80200080:	8401b303          	ld	t1,-1984(gp) # 802068f0 <current_running>
    80200084:	01033283          	ld	t0,16(t1)
    80200088:	00028a63          	beqz	t0,8020009c <do_enable>
    8020008c:	fff28293          	addi	t0,t0,-1
    80200090:	00533823          	sd	t0,16(t1)
    80200094:	00028463          	beqz	t0,8020009c <do_enable>
    80200098:	00008067          	ret

000000008020009c <do_enable>:
    8020009c:	fff04293          	not	t0,zero
    802000a0:	1042a073          	csrs	sie,t0
    802000a4:	00008067          	ret

00000000802000a8 <disable_preempt>:
    802000a8:	10401073          	csrw	sie,zero
    802000ac:	8401b303          	ld	t1,-1984(gp) # 802068f0 <current_running>
    802000b0:	01033283          	ld	t0,16(t1)
    802000b4:	00128293          	addi	t0,t0,1
    802000b8:	00533823          	sd	t0,16(t1)
    802000bc:	00008067          	ret

00000000802000c0 <enable_interrupt>:
    802000c0:	00200293          	li	t0,2
    802000c4:	1002a073          	csrs	sstatus,t0
    802000c8:	00008067          	ret

00000000802000cc <disable_interrupt>:
    802000cc:	00200293          	li	t0,2
    802000d0:	1002a073          	csrs	sstatus,t0
    802000d4:	00008067          	ret

00000000802000d8 <switch_to>:
    802000d8:	f9010113          	addi	sp,sp,-112
    802000dc:	00113023          	sd	ra,0(sp)
    802000e0:	00813823          	sd	s0,16(sp)
    802000e4:	00913c23          	sd	s1,24(sp)
    802000e8:	03213023          	sd	s2,32(sp)
    802000ec:	03313423          	sd	s3,40(sp)
    802000f0:	03413823          	sd	s4,48(sp)
    802000f4:	03513c23          	sd	s5,56(sp)
    802000f8:	05613023          	sd	s6,64(sp)
    802000fc:	05713423          	sd	s7,72(sp)
    80200100:	05813823          	sd	s8,80(sp)
    80200104:	05913c23          	sd	s9,88(sp)
    80200108:	07a13023          	sd	s10,96(sp)
    8020010c:	07b13423          	sd	s11,104(sp)
    80200110:	00213423          	sd	sp,8(sp)
    80200114:	00253023          	sd	sp,0(a0)
    80200118:	00058233          	add	tp,a1,zero
    8020011c:	00023103          	ld	sp,0(tp) # 0 <_start-0x80200000>
    80200120:	00013083          	ld	ra,0(sp)
    80200124:	01013403          	ld	s0,16(sp)
    80200128:	01813483          	ld	s1,24(sp)
    8020012c:	02013903          	ld	s2,32(sp)
    80200130:	02813983          	ld	s3,40(sp)
    80200134:	03013a03          	ld	s4,48(sp)
    80200138:	03813a83          	ld	s5,56(sp)
    8020013c:	04013b03          	ld	s6,64(sp)
    80200140:	04813b83          	ld	s7,72(sp)
    80200144:	05013c03          	ld	s8,80(sp)
    80200148:	05813c83          	ld	s9,88(sp)
    8020014c:	06013d03          	ld	s10,96(sp)
    80200150:	06813d83          	ld	s11,104(sp)
    80200154:	00813103          	ld	sp,8(sp)
    80200158:	07010113          	addi	sp,sp,112
    8020015c:	00008067          	ret

0000000080200160 <ret_from_exception>:
    80200160:	00006297          	auipc	t0,0x6
    80200164:	5e028293          	addi	t0,t0,1504 # 80206740 <pid0_pcb>
    80200168:	00520863          	beq	tp,t0,80200178 <restore>
    8020016c:	2e810293          	addi	t0,sp,744
    80200170:	00523023          	sd	t0,0(tp) # 0 <_start-0x80200000>
    80200174:	14021073          	csrw	sscratch,tp

0000000080200178 <restore>:
    80200178:	10013503          	ld	a0,256(sp)
    8020017c:	10813603          	ld	a2,264(sp)
    80200180:	10051073          	csrw	sstatus,a0
    80200184:	14161073          	csrw	sepc,a2
    80200188:	12013403          	ld	s0,288(sp)
    8020018c:	00041073          	csrw	ustatus,s0
    80200190:	12813403          	ld	s0,296(sp)
    80200194:	04141073          	csrw	uepc,s0
    80200198:	13013403          	ld	s0,304(sp)
    8020019c:	04341073          	csrw	utval,s0
    802001a0:	13813403          	ld	s0,312(sp)
    802001a4:	04241073          	csrw	ucause,s0
    802001a8:	14013403          	ld	s0,320(sp)
    802001ac:	00541073          	csrw	utvec,s0
    802001b0:	14813403          	ld	s0,328(sp)
    802001b4:	00441073          	csrw	uie,s0
    802001b8:	15013403          	ld	s0,336(sp)
    802001bc:	04441073          	csrw	uip,s0
    802001c0:	15813403          	ld	s0,344(sp)
    802001c4:	04041073          	csrw	uscratch,s0
    802001c8:	16013403          	ld	s0,352(sp)
    802001cc:	9e041073          	csrw	0x9e0,s0
    802001d0:	16813403          	ld	s0,360(sp)
    802001d4:	9e241073          	csrw	0x9e2,s0
    802001d8:	17013403          	ld	s0,368(sp)
    802001dc:	9e341073          	csrw	0x9e3,s0
    802001e0:	17813403          	ld	s0,376(sp)
    802001e4:	88041073          	csrw	0x880,s0
    802001e8:	18813403          	ld	s0,392(sp)
    802001ec:	89041073          	csrw	0x890,s0
    802001f0:	19013403          	ld	s0,400(sp)
    802001f4:	89141073          	csrw	0x891,s0
    802001f8:	19813403          	ld	s0,408(sp)
    802001fc:	89241073          	csrw	0x892,s0
    80200200:	1a013403          	ld	s0,416(sp)
    80200204:	89341073          	csrw	0x893,s0
    80200208:	1a813403          	ld	s0,424(sp)
    8020020c:	89441073          	csrw	0x894,s0
    80200210:	1b013403          	ld	s0,432(sp)
    80200214:	89541073          	csrw	0x895,s0
    80200218:	1b813403          	ld	s0,440(sp)
    8020021c:	89641073          	csrw	0x896,s0
    80200220:	1c013403          	ld	s0,448(sp)
    80200224:	89741073          	csrw	0x897,s0
    80200228:	1c813403          	ld	s0,456(sp)
    8020022c:	89841073          	csrw	0x898,s0
    80200230:	1d013403          	ld	s0,464(sp)
    80200234:	89941073          	csrw	0x899,s0
    80200238:	1d813403          	ld	s0,472(sp)
    8020023c:	89a41073          	csrw	0x89a,s0
    80200240:	1e013403          	ld	s0,480(sp)
    80200244:	89b41073          	csrw	0x89b,s0
    80200248:	1e813403          	ld	s0,488(sp)
    8020024c:	89c41073          	csrw	0x89c,s0
    80200250:	1f013403          	ld	s0,496(sp)
    80200254:	89d41073          	csrw	0x89d,s0
    80200258:	1f813403          	ld	s0,504(sp)
    8020025c:	89e41073          	csrw	0x89e,s0
    80200260:	20013403          	ld	s0,512(sp)
    80200264:	89f41073          	csrw	0x89f,s0
    80200268:	20813403          	ld	s0,520(sp)
    8020026c:	8a041073          	csrw	0x8a0,s0
    80200270:	21013403          	ld	s0,528(sp)
    80200274:	8a141073          	csrw	0x8a1,s0
    80200278:	21813403          	ld	s0,536(sp)
    8020027c:	8a241073          	csrw	0x8a2,s0
    80200280:	22013403          	ld	s0,544(sp)
    80200284:	8a341073          	csrw	0x8a3,s0
    80200288:	22813403          	ld	s0,552(sp)
    8020028c:	8a441073          	csrw	0x8a4,s0
    80200290:	23013403          	ld	s0,560(sp)
    80200294:	8a541073          	csrw	0x8a5,s0
    80200298:	23813403          	ld	s0,568(sp)
    8020029c:	8a641073          	csrw	0x8a6,s0
    802002a0:	24013403          	ld	s0,576(sp)
    802002a4:	8a741073          	csrw	0x8a7,s0
    802002a8:	24813403          	ld	s0,584(sp)
    802002ac:	8a841073          	csrw	0x8a8,s0
    802002b0:	25013403          	ld	s0,592(sp)
    802002b4:	8a941073          	csrw	0x8a9,s0
    802002b8:	25813403          	ld	s0,600(sp)
    802002bc:	8aa41073          	csrw	0x8aa,s0
    802002c0:	26013403          	ld	s0,608(sp)
    802002c4:	8ab41073          	csrw	0x8ab,s0
    802002c8:	26813403          	ld	s0,616(sp)
    802002cc:	8ac41073          	csrw	0x8ac,s0
    802002d0:	27013403          	ld	s0,624(sp)
    802002d4:	8ad41073          	csrw	0x8ad,s0
    802002d8:	27813403          	ld	s0,632(sp)
    802002dc:	8ae41073          	csrw	0x8ae,s0
    802002e0:	28013403          	ld	s0,640(sp)
    802002e4:	8af41073          	csrw	0x8af,s0
    802002e8:	28813403          	ld	s0,648(sp)
    802002ec:	8b041073          	csrw	0x8b0,s0
    802002f0:	29013403          	ld	s0,656(sp)
    802002f4:	8b141073          	csrw	0x8b1,s0
    802002f8:	29813403          	ld	s0,664(sp)
    802002fc:	8b241073          	csrw	0x8b2,s0
    80200300:	2a013403          	ld	s0,672(sp)
    80200304:	8c041073          	csrw	0x8c0,s0
    80200308:	2a813403          	ld	s0,680(sp)
    8020030c:	8c141073          	csrw	0x8c1,s0
    80200310:	2b013403          	ld	s0,688(sp)
    80200314:	8c241073          	csrw	0x8c2,s0
    80200318:	2b813403          	ld	s0,696(sp)
    8020031c:	8c341073          	csrw	0x8c3,s0
    80200320:	2c013403          	ld	s0,704(sp)
    80200324:	8c441073          	csrw	0x8c4,s0
    80200328:	2c813403          	ld	s0,712(sp)
    8020032c:	8c541073          	csrw	0x8c5,s0
    80200330:	2d013403          	ld	s0,720(sp)
    80200334:	8c641073          	csrw	0x8c6,s0
    80200338:	2d813403          	ld	s0,728(sp)
    8020033c:	8c741073          	csrw	0x8c7,s0
    80200340:	2e013403          	ld	s0,736(sp)
    80200344:	8c841073          	csrw	0x8c8,s0
    80200348:	00813083          	ld	ra,8(sp)
    8020034c:	01813183          	ld	gp,24(sp)
    80200350:	02013203          	ld	tp,32(sp)
    80200354:	02813283          	ld	t0,40(sp)
    80200358:	03013303          	ld	t1,48(sp)
    8020035c:	03813383          	ld	t2,56(sp)
    80200360:	04013403          	ld	s0,64(sp)
    80200364:	04813483          	ld	s1,72(sp)
    80200368:	05013503          	ld	a0,80(sp)
    8020036c:	05813583          	ld	a1,88(sp)
    80200370:	06013603          	ld	a2,96(sp)
    80200374:	06813683          	ld	a3,104(sp)
    80200378:	07013703          	ld	a4,112(sp)
    8020037c:	07813783          	ld	a5,120(sp)
    80200380:	08013803          	ld	a6,128(sp)
    80200384:	08813883          	ld	a7,136(sp)
    80200388:	09013903          	ld	s2,144(sp)
    8020038c:	09813983          	ld	s3,152(sp)
    80200390:	0a013a03          	ld	s4,160(sp)
    80200394:	0a813a83          	ld	s5,168(sp)
    80200398:	0b013b03          	ld	s6,176(sp)
    8020039c:	0b813b83          	ld	s7,184(sp)
    802003a0:	0c013c03          	ld	s8,192(sp)
    802003a4:	0c813c83          	ld	s9,200(sp)
    802003a8:	0d013d03          	ld	s10,208(sp)
    802003ac:	0d813d83          	ld	s11,216(sp)
    802003b0:	0e013e03          	ld	t3,224(sp)
    802003b4:	0e813e83          	ld	t4,232(sp)
    802003b8:	0f013f03          	ld	t5,240(sp)
    802003bc:	0f813f83          	ld	t6,248(sp)
    802003c0:	01013103          	ld	sp,16(sp)
    802003c4:	10200073          	sret

00000000802003c8 <exception_handler_entry>:
    802003c8:	14021273          	csrrw	tp,sscratch,tp
    802003cc:	00021663          	bnez	tp,802003d8 <_save_context>

00000000802003d0 <_restore_kernel_tpsp>:
    802003d0:	14002273          	csrr	tp,sscratch
    802003d4:	00223023          	sd	sp,0(tp) # 0 <_start-0x80200000>

00000000802003d8 <_save_context>:
    802003d8:	00223423          	sd	sp,8(tp) # 8 <_start-0x801ffff8>
    802003dc:	00023103          	ld	sp,0(tp) # 0 <_start-0x80200000>
    802003e0:	d1810113          	addi	sp,sp,-744
    802003e4:	00113423          	sd	ra,8(sp)
    802003e8:	00313c23          	sd	gp,24(sp)
    802003ec:	02513423          	sd	t0,40(sp)
    802003f0:	02613823          	sd	t1,48(sp)
    802003f4:	02713c23          	sd	t2,56(sp)
    802003f8:	04813023          	sd	s0,64(sp)
    802003fc:	04913423          	sd	s1,72(sp)
    80200400:	04a13823          	sd	a0,80(sp)
    80200404:	04b13c23          	sd	a1,88(sp)
    80200408:	06c13023          	sd	a2,96(sp)
    8020040c:	06d13423          	sd	a3,104(sp)
    80200410:	06e13823          	sd	a4,112(sp)
    80200414:	06f13c23          	sd	a5,120(sp)
    80200418:	09013023          	sd	a6,128(sp)
    8020041c:	09113423          	sd	a7,136(sp)
    80200420:	09213823          	sd	s2,144(sp)
    80200424:	09313c23          	sd	s3,152(sp)
    80200428:	0b413023          	sd	s4,160(sp)
    8020042c:	0b513423          	sd	s5,168(sp)
    80200430:	0b613823          	sd	s6,176(sp)
    80200434:	0b713c23          	sd	s7,184(sp)
    80200438:	0d813023          	sd	s8,192(sp)
    8020043c:	0d913423          	sd	s9,200(sp)
    80200440:	0da13823          	sd	s10,208(sp)
    80200444:	0db13c23          	sd	s11,216(sp)
    80200448:	0fc13023          	sd	t3,224(sp)
    8020044c:	0fd13423          	sd	t4,232(sp)
    80200450:	0fe13823          	sd	t5,240(sp)
    80200454:	0ff13c23          	sd	t6,248(sp)
    80200458:	00002473          	csrr	s0,ustatus
    8020045c:	12813023          	sd	s0,288(sp)
    80200460:	04102473          	csrr	s0,uepc
    80200464:	12813423          	sd	s0,296(sp)
    80200468:	04302473          	csrr	s0,utval
    8020046c:	12813823          	sd	s0,304(sp)
    80200470:	04202473          	csrr	s0,ucause
    80200474:	12813c23          	sd	s0,312(sp)
    80200478:	00502473          	csrr	s0,utvec
    8020047c:	14813023          	sd	s0,320(sp)
    80200480:	00402473          	csrr	s0,uie
    80200484:	14813423          	sd	s0,328(sp)
    80200488:	04402473          	csrr	s0,uip
    8020048c:	14813823          	sd	s0,336(sp)
    80200490:	04002473          	csrr	s0,uscratch
    80200494:	14813c23          	sd	s0,344(sp)
    80200498:	9e002473          	csrr	s0,0x9e0
    8020049c:	16813023          	sd	s0,352(sp)
    802004a0:	9e202473          	csrr	s0,0x9e2
    802004a4:	16813423          	sd	s0,360(sp)
    802004a8:	9e302473          	csrr	s0,0x9e3
    802004ac:	16813823          	sd	s0,368(sp)
    802004b0:	88002473          	csrr	s0,0x880
    802004b4:	16813c23          	sd	s0,376(sp)
    802004b8:	89002473          	csrr	s0,0x890
    802004bc:	18813423          	sd	s0,392(sp)
    802004c0:	89102473          	csrr	s0,0x891
    802004c4:	18813823          	sd	s0,400(sp)
    802004c8:	89202473          	csrr	s0,0x892
    802004cc:	18813c23          	sd	s0,408(sp)
    802004d0:	89302473          	csrr	s0,0x893
    802004d4:	1a813023          	sd	s0,416(sp)
    802004d8:	89402473          	csrr	s0,0x894
    802004dc:	1a813423          	sd	s0,424(sp)
    802004e0:	89502473          	csrr	s0,0x895
    802004e4:	1a813823          	sd	s0,432(sp)
    802004e8:	89602473          	csrr	s0,0x896
    802004ec:	1a813c23          	sd	s0,440(sp)
    802004f0:	89702473          	csrr	s0,0x897
    802004f4:	1c813023          	sd	s0,448(sp)
    802004f8:	89802473          	csrr	s0,0x898
    802004fc:	1c813423          	sd	s0,456(sp)
    80200500:	89902473          	csrr	s0,0x899
    80200504:	1c813823          	sd	s0,464(sp)
    80200508:	89a02473          	csrr	s0,0x89a
    8020050c:	1c813c23          	sd	s0,472(sp)
    80200510:	89b02473          	csrr	s0,0x89b
    80200514:	1e813023          	sd	s0,480(sp)
    80200518:	89c02473          	csrr	s0,0x89c
    8020051c:	1e813423          	sd	s0,488(sp)
    80200520:	89d02473          	csrr	s0,0x89d
    80200524:	1e813823          	sd	s0,496(sp)
    80200528:	89e02473          	csrr	s0,0x89e
    8020052c:	1e813c23          	sd	s0,504(sp)
    80200530:	89f02473          	csrr	s0,0x89f
    80200534:	20813023          	sd	s0,512(sp)
    80200538:	8a002473          	csrr	s0,0x8a0
    8020053c:	20813423          	sd	s0,520(sp)
    80200540:	8a102473          	csrr	s0,0x8a1
    80200544:	20813823          	sd	s0,528(sp)
    80200548:	8a202473          	csrr	s0,0x8a2
    8020054c:	20813c23          	sd	s0,536(sp)
    80200550:	8a302473          	csrr	s0,0x8a3
    80200554:	22813023          	sd	s0,544(sp)
    80200558:	8a402473          	csrr	s0,0x8a4
    8020055c:	22813423          	sd	s0,552(sp)
    80200560:	8a502473          	csrr	s0,0x8a5
    80200564:	22813823          	sd	s0,560(sp)
    80200568:	8a602473          	csrr	s0,0x8a6
    8020056c:	22813c23          	sd	s0,568(sp)
    80200570:	8a702473          	csrr	s0,0x8a7
    80200574:	24813023          	sd	s0,576(sp)
    80200578:	8a802473          	csrr	s0,0x8a8
    8020057c:	24813423          	sd	s0,584(sp)
    80200580:	8a902473          	csrr	s0,0x8a9
    80200584:	24813823          	sd	s0,592(sp)
    80200588:	8aa02473          	csrr	s0,0x8aa
    8020058c:	24813c23          	sd	s0,600(sp)
    80200590:	8ab02473          	csrr	s0,0x8ab
    80200594:	26813023          	sd	s0,608(sp)
    80200598:	8ac02473          	csrr	s0,0x8ac
    8020059c:	26813423          	sd	s0,616(sp)
    802005a0:	8ad02473          	csrr	s0,0x8ad
    802005a4:	26813823          	sd	s0,624(sp)
    802005a8:	8ae02473          	csrr	s0,0x8ae
    802005ac:	26813c23          	sd	s0,632(sp)
    802005b0:	8af02473          	csrr	s0,0x8af
    802005b4:	28813023          	sd	s0,640(sp)
    802005b8:	8b002473          	csrr	s0,0x8b0
    802005bc:	28813423          	sd	s0,648(sp)
    802005c0:	8b102473          	csrr	s0,0x8b1
    802005c4:	28813823          	sd	s0,656(sp)
    802005c8:	8b202473          	csrr	s0,0x8b2
    802005cc:	28813c23          	sd	s0,664(sp)
    802005d0:	8c002473          	csrr	s0,0x8c0
    802005d4:	2a813023          	sd	s0,672(sp)
    802005d8:	8c102473          	csrr	s0,0x8c1
    802005dc:	2a813423          	sd	s0,680(sp)
    802005e0:	8c202473          	csrr	s0,0x8c2
    802005e4:	2a813823          	sd	s0,688(sp)
    802005e8:	8c302473          	csrr	s0,0x8c3
    802005ec:	2a813c23          	sd	s0,696(sp)
    802005f0:	8c402473          	csrr	s0,0x8c4
    802005f4:	2c813023          	sd	s0,704(sp)
    802005f8:	8c502473          	csrr	s0,0x8c5
    802005fc:	2c813423          	sd	s0,712(sp)
    80200600:	8c602473          	csrr	s0,0x8c6
    80200604:	2c813823          	sd	s0,720(sp)
    80200608:	8c702473          	csrr	s0,0x8c7
    8020060c:	2c813c23          	sd	s0,728(sp)
    80200610:	8c802473          	csrr	s0,0x8c8
    80200614:	2e813023          	sd	s0,736(sp)
    80200618:	000462b7          	lui	t0,0x46
    8020061c:	00823403          	ld	s0,8(tp) # 8 <_start-0x801ffff8>
    80200620:	1002b4f3          	csrrc	s1,sstatus,t0
    80200624:	14102973          	csrr	s2,sepc
    80200628:	143029f3          	csrr	s3,stval
    8020062c:	14202a73          	csrr	s4,scause
    80200630:	14002af3          	csrr	s5,sscratch
    80200634:	00813823          	sd	s0,16(sp)
    80200638:	10913023          	sd	s1,256(sp)
    8020063c:	11213423          	sd	s2,264(sp)
    80200640:	11313823          	sd	s3,272(sp)
    80200644:	11413c23          	sd	s4,280(sp)
    80200648:	03513023          	sd	s5,32(sp)
    8020064c:	14001073          	csrw	sscratch,zero
    80200650:	00007197          	auipc	gp,0x7
    80200654:	a6018193          	addi	gp,gp,-1440 # 802070b0 <__global_pointer$>
    80200658:	00000097          	auipc	ra,0x0
    8020065c:	b0808093          	addi	ra,ra,-1272 # 80200160 <ret_from_exception>
    80200660:	00010513          	mv	a0,sp
    80200664:	00098593          	mv	a1,s3
    80200668:	000a0613          	mv	a2,s4
    8020066c:	00002297          	auipc	t0,0x2
    80200670:	3f028293          	addi	t0,t0,1008 # 80202a5c <interrupt_helper>
    80200674:	00028067          	jr	t0

0000000080200678 <sys_exit>:
    80200678:	ff010113          	addi	sp,sp,-16
    8020067c:	00113423          	sd	ra,8(sp)
    80200680:	00813023          	sd	s0,0(sp)
    80200684:	01010413          	addi	s0,sp,16
    80200688:	00000693          	li	a3,0
    8020068c:	00000613          	li	a2,0
    80200690:	00000593          	li	a1,0
    80200694:	00100513          	li	a0,1
    80200698:	9b9ff0ef          	jal	ra,80200050 <invoke_syscall>
    8020069c:	00000013          	nop
    802006a0:	00813083          	ld	ra,8(sp)
    802006a4:	00013403          	ld	s0,0(sp)
    802006a8:	01010113          	addi	sp,sp,16
    802006ac:	00008067          	ret

00000000802006b0 <sys_yield>:
    802006b0:	ff010113          	addi	sp,sp,-16
    802006b4:	00113423          	sd	ra,8(sp)
    802006b8:	00813023          	sd	s0,0(sp)
    802006bc:	01010413          	addi	s0,sp,16
    802006c0:	00000693          	li	a3,0
    802006c4:	00000613          	li	a2,0
    802006c8:	00000593          	li	a1,0
    802006cc:	00700513          	li	a0,7
    802006d0:	981ff0ef          	jal	ra,80200050 <invoke_syscall>
    802006d4:	00000013          	nop
    802006d8:	00813083          	ld	ra,8(sp)
    802006dc:	00013403          	ld	s0,0(sp)
    802006e0:	01010113          	addi	sp,sp,16
    802006e4:	00008067          	ret

00000000802006e8 <sys_sleep>:
    802006e8:	fe010113          	addi	sp,sp,-32
    802006ec:	00113c23          	sd	ra,24(sp)
    802006f0:	00813823          	sd	s0,16(sp)
    802006f4:	02010413          	addi	s0,sp,32
    802006f8:	00050793          	mv	a5,a0
    802006fc:	fef42623          	sw	a5,-20(s0)
    80200700:	fec46783          	lwu	a5,-20(s0)
    80200704:	00000693          	li	a3,0
    80200708:	00000613          	li	a2,0
    8020070c:	00078593          	mv	a1,a5
    80200710:	00200513          	li	a0,2
    80200714:	93dff0ef          	jal	ra,80200050 <invoke_syscall>
    80200718:	00000013          	nop
    8020071c:	01813083          	ld	ra,24(sp)
    80200720:	01013403          	ld	s0,16(sp)
    80200724:	02010113          	addi	sp,sp,32
    80200728:	00008067          	ret

000000008020072c <sys_write>:
    8020072c:	fe010113          	addi	sp,sp,-32
    80200730:	00113c23          	sd	ra,24(sp)
    80200734:	00813823          	sd	s0,16(sp)
    80200738:	02010413          	addi	s0,sp,32
    8020073c:	fea43423          	sd	a0,-24(s0)
    80200740:	fe843783          	ld	a5,-24(s0)
    80200744:	00000693          	li	a3,0
    80200748:	00000613          	li	a2,0
    8020074c:	00078593          	mv	a1,a5
    80200750:	01400513          	li	a0,20
    80200754:	8fdff0ef          	jal	ra,80200050 <invoke_syscall>
    80200758:	00000013          	nop
    8020075c:	01813083          	ld	ra,24(sp)
    80200760:	01013403          	ld	s0,16(sp)
    80200764:	02010113          	addi	sp,sp,32
    80200768:	00008067          	ret

000000008020076c <sys_reflush>:
    8020076c:	ff010113          	addi	sp,sp,-16
    80200770:	00113423          	sd	ra,8(sp)
    80200774:	00813023          	sd	s0,0(sp)
    80200778:	01010413          	addi	s0,sp,16
    8020077c:	00000693          	li	a3,0
    80200780:	00000613          	li	a2,0
    80200784:	00000593          	li	a1,0
    80200788:	01700513          	li	a0,23
    8020078c:	8c5ff0ef          	jal	ra,80200050 <invoke_syscall>
    80200790:	00000013          	nop
    80200794:	00813083          	ld	ra,8(sp)
    80200798:	00013403          	ld	s0,0(sp)
    8020079c:	01010113          	addi	sp,sp,16
    802007a0:	00008067          	ret

00000000802007a4 <sys_move_cursor>:
    802007a4:	fe010113          	addi	sp,sp,-32
    802007a8:	00113c23          	sd	ra,24(sp)
    802007ac:	00813823          	sd	s0,16(sp)
    802007b0:	02010413          	addi	s0,sp,32
    802007b4:	00050793          	mv	a5,a0
    802007b8:	00058713          	mv	a4,a1
    802007bc:	fef42623          	sw	a5,-20(s0)
    802007c0:	00070793          	mv	a5,a4
    802007c4:	fef42423          	sw	a5,-24(s0)
    802007c8:	fec42783          	lw	a5,-20(s0)
    802007cc:	fe842703          	lw	a4,-24(s0)
    802007d0:	00000693          	li	a3,0
    802007d4:	00070613          	mv	a2,a4
    802007d8:	00078593          	mv	a1,a5
    802007dc:	01600513          	li	a0,22
    802007e0:	871ff0ef          	jal	ra,80200050 <invoke_syscall>
    802007e4:	00000013          	nop
    802007e8:	01813083          	ld	ra,24(sp)
    802007ec:	01013403          	ld	s0,16(sp)
    802007f0:	02010113          	addi	sp,sp,32
    802007f4:	00008067          	ret

00000000802007f8 <sys_futex_wait>:
    802007f8:	fe010113          	addi	sp,sp,-32
    802007fc:	00113c23          	sd	ra,24(sp)
    80200800:	00813823          	sd	s0,16(sp)
    80200804:	02010413          	addi	s0,sp,32
    80200808:	fea43423          	sd	a0,-24(s0)
    8020080c:	feb43023          	sd	a1,-32(s0)
    80200810:	fe843783          	ld	a5,-24(s0)
    80200814:	fe043703          	ld	a4,-32(s0)
    80200818:	00000693          	li	a3,0
    8020081c:	00070613          	mv	a2,a4
    80200820:	00078593          	mv	a1,a5
    80200824:	00a00513          	li	a0,10
    80200828:	829ff0ef          	jal	ra,80200050 <invoke_syscall>
    8020082c:	00000013          	nop
    80200830:	01813083          	ld	ra,24(sp)
    80200834:	01013403          	ld	s0,16(sp)
    80200838:	02010113          	addi	sp,sp,32
    8020083c:	00008067          	ret

0000000080200840 <sys_futex_wakeup>:
    80200840:	fe010113          	addi	sp,sp,-32
    80200844:	00113c23          	sd	ra,24(sp)
    80200848:	00813823          	sd	s0,16(sp)
    8020084c:	02010413          	addi	s0,sp,32
    80200850:	fea43423          	sd	a0,-24(s0)
    80200854:	00058793          	mv	a5,a1
    80200858:	fef42223          	sw	a5,-28(s0)
    8020085c:	fe843783          	ld	a5,-24(s0)
    80200860:	fe442703          	lw	a4,-28(s0)
    80200864:	00000693          	li	a3,0
    80200868:	00070613          	mv	a2,a4
    8020086c:	00078593          	mv	a1,a5
    80200870:	00b00513          	li	a0,11
    80200874:	fdcff0ef          	jal	ra,80200050 <invoke_syscall>
    80200878:	00000013          	nop
    8020087c:	01813083          	ld	ra,24(sp)
    80200880:	01013403          	ld	s0,16(sp)
    80200884:	02010113          	addi	sp,sp,32
    80200888:	00008067          	ret

000000008020088c <sys_get_timebase>:
    8020088c:	ff010113          	addi	sp,sp,-16
    80200890:	00113423          	sd	ra,8(sp)
    80200894:	00813023          	sd	s0,0(sp)
    80200898:	01010413          	addi	s0,sp,16
    8020089c:	00000693          	li	a3,0
    802008a0:	00000613          	li	a2,0
    802008a4:	00000593          	li	a1,0
    802008a8:	01e00513          	li	a0,30
    802008ac:	fa4ff0ef          	jal	ra,80200050 <invoke_syscall>
    802008b0:	00050793          	mv	a5,a0
    802008b4:	00078513          	mv	a0,a5
    802008b8:	00813083          	ld	ra,8(sp)
    802008bc:	00013403          	ld	s0,0(sp)
    802008c0:	01010113          	addi	sp,sp,16
    802008c4:	00008067          	ret

00000000802008c8 <sys_get_tick>:
    802008c8:	ff010113          	addi	sp,sp,-16
    802008cc:	00113423          	sd	ra,8(sp)
    802008d0:	00813023          	sd	s0,0(sp)
    802008d4:	01010413          	addi	s0,sp,16
    802008d8:	00000693          	li	a3,0
    802008dc:	00000613          	li	a2,0
    802008e0:	00000593          	li	a1,0
    802008e4:	01f00513          	li	a0,31
    802008e8:	f68ff0ef          	jal	ra,80200050 <invoke_syscall>
    802008ec:	00050793          	mv	a5,a0
    802008f0:	00078513          	mv	a0,a5
    802008f4:	00813083          	ld	ra,8(sp)
    802008f8:	00013403          	ld	s0,0(sp)
    802008fc:	01010113          	addi	sp,sp,16
    80200900:	00008067          	ret

0000000080200904 <strlen>:
    80200904:	fd010113          	addi	sp,sp,-48
    80200908:	02813423          	sd	s0,40(sp)
    8020090c:	03010413          	addi	s0,sp,48
    80200910:	fca43c23          	sd	a0,-40(s0)
    80200914:	fe042623          	sw	zero,-20(s0)
    80200918:	0100006f          	j	80200928 <strlen+0x24>
    8020091c:	fec42783          	lw	a5,-20(s0)
    80200920:	0017879b          	addiw	a5,a5,1
    80200924:	fef42623          	sw	a5,-20(s0)
    80200928:	fec42783          	lw	a5,-20(s0)
    8020092c:	fd843703          	ld	a4,-40(s0)
    80200930:	00f707b3          	add	a5,a4,a5
    80200934:	0007c783          	lbu	a5,0(a5)
    80200938:	fe0792e3          	bnez	a5,8020091c <strlen+0x18>
    8020093c:	fec42783          	lw	a5,-20(s0)
    80200940:	00078513          	mv	a0,a5
    80200944:	02813403          	ld	s0,40(sp)
    80200948:	03010113          	addi	sp,sp,48
    8020094c:	00008067          	ret

0000000080200950 <memcpy>:
    80200950:	fd010113          	addi	sp,sp,-48
    80200954:	02813423          	sd	s0,40(sp)
    80200958:	03010413          	addi	s0,sp,48
    8020095c:	fea43423          	sd	a0,-24(s0)
    80200960:	feb43023          	sd	a1,-32(s0)
    80200964:	00060793          	mv	a5,a2
    80200968:	fcf42e23          	sw	a5,-36(s0)
    8020096c:	0300006f          	j	8020099c <memcpy+0x4c>
    80200970:	fe043703          	ld	a4,-32(s0)
    80200974:	00170793          	addi	a5,a4,1
    80200978:	fef43023          	sd	a5,-32(s0)
    8020097c:	fe843783          	ld	a5,-24(s0)
    80200980:	00178693          	addi	a3,a5,1
    80200984:	fed43423          	sd	a3,-24(s0)
    80200988:	00074703          	lbu	a4,0(a4)
    8020098c:	00e78023          	sb	a4,0(a5)
    80200990:	fdc42783          	lw	a5,-36(s0)
    80200994:	fff7879b          	addiw	a5,a5,-1
    80200998:	fcf42e23          	sw	a5,-36(s0)
    8020099c:	fdc42783          	lw	a5,-36(s0)
    802009a0:	0007879b          	sext.w	a5,a5
    802009a4:	fc0796e3          	bnez	a5,80200970 <memcpy+0x20>
    802009a8:	00000013          	nop
    802009ac:	00000013          	nop
    802009b0:	02813403          	ld	s0,40(sp)
    802009b4:	03010113          	addi	sp,sp,48
    802009b8:	00008067          	ret

00000000802009bc <memset>:
    802009bc:	fd010113          	addi	sp,sp,-48
    802009c0:	02813423          	sd	s0,40(sp)
    802009c4:	03010413          	addi	s0,sp,48
    802009c8:	fca43c23          	sd	a0,-40(s0)
    802009cc:	00058793          	mv	a5,a1
    802009d0:	00060713          	mv	a4,a2
    802009d4:	fcf40ba3          	sb	a5,-41(s0)
    802009d8:	00070793          	mv	a5,a4
    802009dc:	fcf42823          	sw	a5,-48(s0)
    802009e0:	fd843783          	ld	a5,-40(s0)
    802009e4:	fef43423          	sd	a5,-24(s0)
    802009e8:	0240006f          	j	80200a0c <memset+0x50>
    802009ec:	fe843783          	ld	a5,-24(s0)
    802009f0:	00178713          	addi	a4,a5,1
    802009f4:	fee43423          	sd	a4,-24(s0)
    802009f8:	fd744703          	lbu	a4,-41(s0)
    802009fc:	00e78023          	sb	a4,0(a5)
    80200a00:	fd042783          	lw	a5,-48(s0)
    80200a04:	fff7879b          	addiw	a5,a5,-1
    80200a08:	fcf42823          	sw	a5,-48(s0)
    80200a0c:	fd042783          	lw	a5,-48(s0)
    80200a10:	0007879b          	sext.w	a5,a5
    80200a14:	fc079ce3          	bnez	a5,802009ec <memset+0x30>
    80200a18:	00000013          	nop
    80200a1c:	00000013          	nop
    80200a20:	02813403          	ld	s0,40(sp)
    80200a24:	03010113          	addi	sp,sp,48
    80200a28:	00008067          	ret

0000000080200a2c <bzero>:
    80200a2c:	fe010113          	addi	sp,sp,-32
    80200a30:	00113c23          	sd	ra,24(sp)
    80200a34:	00813823          	sd	s0,16(sp)
    80200a38:	02010413          	addi	s0,sp,32
    80200a3c:	fea43423          	sd	a0,-24(s0)
    80200a40:	00058793          	mv	a5,a1
    80200a44:	fef42223          	sw	a5,-28(s0)
    80200a48:	fe442783          	lw	a5,-28(s0)
    80200a4c:	00078613          	mv	a2,a5
    80200a50:	00000593          	li	a1,0
    80200a54:	fe843503          	ld	a0,-24(s0)
    80200a58:	f65ff0ef          	jal	ra,802009bc <memset>
    80200a5c:	00000013          	nop
    80200a60:	01813083          	ld	ra,24(sp)
    80200a64:	01013403          	ld	s0,16(sp)
    80200a68:	02010113          	addi	sp,sp,32
    80200a6c:	00008067          	ret

0000000080200a70 <strcmp>:
    80200a70:	fe010113          	addi	sp,sp,-32
    80200a74:	00813c23          	sd	s0,24(sp)
    80200a78:	02010413          	addi	s0,sp,32
    80200a7c:	fea43423          	sd	a0,-24(s0)
    80200a80:	feb43023          	sd	a1,-32(s0)
    80200a84:	0540006f          	j	80200ad8 <strcmp+0x68>
    80200a88:	fe843783          	ld	a5,-24(s0)
    80200a8c:	0007c703          	lbu	a4,0(a5)
    80200a90:	fe043783          	ld	a5,-32(s0)
    80200a94:	0007c783          	lbu	a5,0(a5)
    80200a98:	02f70463          	beq	a4,a5,80200ac0 <strcmp+0x50>
    80200a9c:	fe843783          	ld	a5,-24(s0)
    80200aa0:	0007c783          	lbu	a5,0(a5)
    80200aa4:	0007871b          	sext.w	a4,a5
    80200aa8:	fe043783          	ld	a5,-32(s0)
    80200aac:	0007c783          	lbu	a5,0(a5)
    80200ab0:	0007879b          	sext.w	a5,a5
    80200ab4:	40f707bb          	subw	a5,a4,a5
    80200ab8:	0007879b          	sext.w	a5,a5
    80200abc:	0540006f          	j	80200b10 <strcmp+0xa0>
    80200ac0:	fe843783          	ld	a5,-24(s0)
    80200ac4:	00178793          	addi	a5,a5,1
    80200ac8:	fef43423          	sd	a5,-24(s0)
    80200acc:	fe043783          	ld	a5,-32(s0)
    80200ad0:	00178793          	addi	a5,a5,1
    80200ad4:	fef43023          	sd	a5,-32(s0)
    80200ad8:	fe843783          	ld	a5,-24(s0)
    80200adc:	0007c783          	lbu	a5,0(a5)
    80200ae0:	00078863          	beqz	a5,80200af0 <strcmp+0x80>
    80200ae4:	fe043783          	ld	a5,-32(s0)
    80200ae8:	0007c783          	lbu	a5,0(a5)
    80200aec:	f8079ee3          	bnez	a5,80200a88 <strcmp+0x18>
    80200af0:	fe843783          	ld	a5,-24(s0)
    80200af4:	0007c783          	lbu	a5,0(a5)
    80200af8:	0007871b          	sext.w	a4,a5
    80200afc:	fe043783          	ld	a5,-32(s0)
    80200b00:	0007c783          	lbu	a5,0(a5)
    80200b04:	0007879b          	sext.w	a5,a5
    80200b08:	40f707bb          	subw	a5,a4,a5
    80200b0c:	0007879b          	sext.w	a5,a5
    80200b10:	00078513          	mv	a0,a5
    80200b14:	01813403          	ld	s0,24(sp)
    80200b18:	02010113          	addi	sp,sp,32
    80200b1c:	00008067          	ret

0000000080200b20 <strcpy>:
    80200b20:	fd010113          	addi	sp,sp,-48
    80200b24:	02813423          	sd	s0,40(sp)
    80200b28:	03010413          	addi	s0,sp,48
    80200b2c:	fca43c23          	sd	a0,-40(s0)
    80200b30:	fcb43823          	sd	a1,-48(s0)
    80200b34:	fd843783          	ld	a5,-40(s0)
    80200b38:	fef43423          	sd	a5,-24(s0)
    80200b3c:	0240006f          	j	80200b60 <strcpy+0x40>
    80200b40:	fd043703          	ld	a4,-48(s0)
    80200b44:	00170793          	addi	a5,a4,1
    80200b48:	fcf43823          	sd	a5,-48(s0)
    80200b4c:	fd843783          	ld	a5,-40(s0)
    80200b50:	00178693          	addi	a3,a5,1
    80200b54:	fcd43c23          	sd	a3,-40(s0)
    80200b58:	00074703          	lbu	a4,0(a4)
    80200b5c:	00e78023          	sb	a4,0(a5)
    80200b60:	fd043783          	ld	a5,-48(s0)
    80200b64:	0007c783          	lbu	a5,0(a5)
    80200b68:	fc079ce3          	bnez	a5,80200b40 <strcpy+0x20>
    80200b6c:	fd843783          	ld	a5,-40(s0)
    80200b70:	00078023          	sb	zero,0(a5)
    80200b74:	fe843783          	ld	a5,-24(s0)
    80200b78:	00078513          	mv	a0,a5
    80200b7c:	02813403          	ld	s0,40(sp)
    80200b80:	03010113          	addi	sp,sp,48
    80200b84:	00008067          	ret

0000000080200b88 <strcat>:
    80200b88:	fd010113          	addi	sp,sp,-48
    80200b8c:	02813423          	sd	s0,40(sp)
    80200b90:	03010413          	addi	s0,sp,48
    80200b94:	fca43c23          	sd	a0,-40(s0)
    80200b98:	fcb43823          	sd	a1,-48(s0)
    80200b9c:	fd843783          	ld	a5,-40(s0)
    80200ba0:	fef43423          	sd	a5,-24(s0)
    80200ba4:	0100006f          	j	80200bb4 <strcat+0x2c>
    80200ba8:	fd843783          	ld	a5,-40(s0)
    80200bac:	00178793          	addi	a5,a5,1
    80200bb0:	fcf43c23          	sd	a5,-40(s0)
    80200bb4:	fd843783          	ld	a5,-40(s0)
    80200bb8:	0007c783          	lbu	a5,0(a5)
    80200bbc:	fe0796e3          	bnez	a5,80200ba8 <strcat+0x20>
    80200bc0:	0240006f          	j	80200be4 <strcat+0x5c>
    80200bc4:	fd043703          	ld	a4,-48(s0)
    80200bc8:	00170793          	addi	a5,a4,1
    80200bcc:	fcf43823          	sd	a5,-48(s0)
    80200bd0:	fd843783          	ld	a5,-40(s0)
    80200bd4:	00178693          	addi	a3,a5,1
    80200bd8:	fcd43c23          	sd	a3,-40(s0)
    80200bdc:	00074703          	lbu	a4,0(a4)
    80200be0:	00e78023          	sb	a4,0(a5)
    80200be4:	fd043783          	ld	a5,-48(s0)
    80200be8:	0007c783          	lbu	a5,0(a5)
    80200bec:	fc079ce3          	bnez	a5,80200bc4 <strcat+0x3c>
    80200bf0:	fd843783          	ld	a5,-40(s0)
    80200bf4:	00078023          	sb	zero,0(a5)
    80200bf8:	fe843783          	ld	a5,-24(s0)
    80200bfc:	00078513          	mv	a0,a5
    80200c00:	02813403          	ld	s0,40(sp)
    80200c04:	03010113          	addi	sp,sp,48
    80200c08:	00008067          	ret

0000000080200c0c <sbi_console_putstr>:
    80200c0c:	fe010113          	addi	sp,sp,-32
    80200c10:	00813c23          	sd	s0,24(sp)
    80200c14:	02010413          	addi	s0,sp,32
    80200c18:	fea43423          	sd	a0,-24(s0)
    80200c1c:	0280006f          	j	80200c44 <sbi_console_putstr+0x38>
    80200c20:	fe843783          	ld	a5,-24(s0)
    80200c24:	00178713          	addi	a4,a5,1
    80200c28:	fee43423          	sd	a4,-24(s0)
    80200c2c:	0007c783          	lbu	a5,0(a5)
    80200c30:	00078513          	mv	a0,a5
    80200c34:	00000593          	li	a1,0
    80200c38:	00000613          	li	a2,0
    80200c3c:	00100893          	li	a7,1
    80200c40:	00000073          	ecall
    80200c44:	fe843783          	ld	a5,-24(s0)
    80200c48:	0007c783          	lbu	a5,0(a5)
    80200c4c:	fc079ae3          	bnez	a5,80200c20 <sbi_console_putstr+0x14>
    80200c50:	00000013          	nop
    80200c54:	00000013          	nop
    80200c58:	01813403          	ld	s0,24(sp)
    80200c5c:	02010113          	addi	sp,sp,32
    80200c60:	00008067          	ret

0000000080200c64 <sbi_console_putchar>:
    80200c64:	fe010113          	addi	sp,sp,-32
    80200c68:	00813c23          	sd	s0,24(sp)
    80200c6c:	02010413          	addi	s0,sp,32
    80200c70:	00050793          	mv	a5,a0
    80200c74:	fef42623          	sw	a5,-20(s0)
    80200c78:	fec42783          	lw	a5,-20(s0)
    80200c7c:	00078513          	mv	a0,a5
    80200c80:	00000593          	li	a1,0
    80200c84:	00000613          	li	a2,0
    80200c88:	00100893          	li	a7,1
    80200c8c:	00000073          	ecall
    80200c90:	00000013          	nop
    80200c94:	01813403          	ld	s0,24(sp)
    80200c98:	02010113          	addi	sp,sp,32
    80200c9c:	00008067          	ret

0000000080200ca0 <port_write_ch>:
    80200ca0:	fe010113          	addi	sp,sp,-32
    80200ca4:	00113c23          	sd	ra,24(sp)
    80200ca8:	00813823          	sd	s0,16(sp)
    80200cac:	02010413          	addi	s0,sp,32
    80200cb0:	00050793          	mv	a5,a0
    80200cb4:	fef407a3          	sb	a5,-17(s0)
    80200cb8:	fef44783          	lbu	a5,-17(s0)
    80200cbc:	0007879b          	sext.w	a5,a5
    80200cc0:	00078513          	mv	a0,a5
    80200cc4:	fa1ff0ef          	jal	ra,80200c64 <sbi_console_putchar>
    80200cc8:	00000013          	nop
    80200ccc:	01813083          	ld	ra,24(sp)
    80200cd0:	01013403          	ld	s0,16(sp)
    80200cd4:	02010113          	addi	sp,sp,32
    80200cd8:	00008067          	ret

0000000080200cdc <port_write>:
    80200cdc:	fe010113          	addi	sp,sp,-32
    80200ce0:	00113c23          	sd	ra,24(sp)
    80200ce4:	00813823          	sd	s0,16(sp)
    80200ce8:	02010413          	addi	s0,sp,32
    80200cec:	fea43423          	sd	a0,-24(s0)
    80200cf0:	fe843503          	ld	a0,-24(s0)
    80200cf4:	f19ff0ef          	jal	ra,80200c0c <sbi_console_putstr>
    80200cf8:	00000013          	nop
    80200cfc:	01813083          	ld	ra,24(sp)
    80200d00:	01013403          	ld	s0,16(sp)
    80200d04:	02010113          	addi	sp,sp,32
    80200d08:	00008067          	ret

0000000080200d0c <mini_strlen>:
    80200d0c:	fd010113          	addi	sp,sp,-48
    80200d10:	02813423          	sd	s0,40(sp)
    80200d14:	03010413          	addi	s0,sp,48
    80200d18:	fca43c23          	sd	a0,-40(s0)
    80200d1c:	fe042623          	sw	zero,-20(s0)
    80200d20:	0100006f          	j	80200d30 <mini_strlen+0x24>
    80200d24:	fec42783          	lw	a5,-20(s0)
    80200d28:	0017879b          	addiw	a5,a5,1
    80200d2c:	fef42623          	sw	a5,-20(s0)
    80200d30:	fec46783          	lwu	a5,-20(s0)
    80200d34:	fd843703          	ld	a4,-40(s0)
    80200d38:	00f707b3          	add	a5,a4,a5
    80200d3c:	0007c783          	lbu	a5,0(a5)
    80200d40:	fe0792e3          	bnez	a5,80200d24 <mini_strlen+0x18>
    80200d44:	fec42783          	lw	a5,-20(s0)
    80200d48:	00078513          	mv	a0,a5
    80200d4c:	02813403          	ld	s0,40(sp)
    80200d50:	03010113          	addi	sp,sp,48
    80200d54:	00008067          	ret

0000000080200d58 <mini_itoa>:
    80200d58:	fb010113          	addi	sp,sp,-80
    80200d5c:	04813423          	sd	s0,72(sp)
    80200d60:	05010413          	addi	s0,sp,80
    80200d64:	fca43423          	sd	a0,-56(s0)
    80200d68:	fae43823          	sd	a4,-80(s0)
    80200d6c:	00078713          	mv	a4,a5
    80200d70:	00058793          	mv	a5,a1
    80200d74:	fcf42223          	sw	a5,-60(s0)
    80200d78:	00060793          	mv	a5,a2
    80200d7c:	fcf42023          	sw	a5,-64(s0)
    80200d80:	00068793          	mv	a5,a3
    80200d84:	faf42e23          	sw	a5,-68(s0)
    80200d88:	00070793          	mv	a5,a4
    80200d8c:	faf42c23          	sw	a5,-72(s0)
    80200d90:	fb043783          	ld	a5,-80(s0)
    80200d94:	fef43423          	sd	a5,-24(s0)
    80200d98:	fe042223          	sw	zero,-28(s0)
    80200d9c:	fc442783          	lw	a5,-60(s0)
    80200da0:	0007871b          	sext.w	a4,a5
    80200da4:	01000793          	li	a5,16
    80200da8:	00e7f663          	bgeu	a5,a4,80200db4 <mini_itoa+0x5c>
    80200dac:	00000793          	li	a5,0
    80200db0:	1e80006f          	j	80200f98 <mini_itoa+0x240>
    80200db4:	fc843783          	ld	a5,-56(s0)
    80200db8:	0207d263          	bgez	a5,80200ddc <mini_itoa+0x84>
    80200dbc:	fbc42783          	lw	a5,-68(s0)
    80200dc0:	0007879b          	sext.w	a5,a5
    80200dc4:	00079c63          	bnez	a5,80200ddc <mini_itoa+0x84>
    80200dc8:	00100793          	li	a5,1
    80200dcc:	fef42223          	sw	a5,-28(s0)
    80200dd0:	fc843783          	ld	a5,-56(s0)
    80200dd4:	40f007b3          	neg	a5,a5
    80200dd8:	fcf43423          	sd	a5,-56(s0)
    80200ddc:	fc446783          	lwu	a5,-60(s0)
    80200de0:	fc843703          	ld	a4,-56(s0)
    80200de4:	02f767b3          	rem	a5,a4,a5
    80200de8:	fcf42e23          	sw	a5,-36(s0)
    80200dec:	fdc42783          	lw	a5,-36(s0)
    80200df0:	0007871b          	sext.w	a4,a5
    80200df4:	00900793          	li	a5,9
    80200df8:	00e7cc63          	blt	a5,a4,80200e10 <mini_itoa+0xb8>
    80200dfc:	fdc42783          	lw	a5,-36(s0)
    80200e00:	0ff7f793          	zext.b	a5,a5
    80200e04:	0307879b          	addiw	a5,a5,48
    80200e08:	0ff7f713          	zext.b	a4,a5
    80200e0c:	0340006f          	j	80200e40 <mini_itoa+0xe8>
    80200e10:	fc042783          	lw	a5,-64(s0)
    80200e14:	0007879b          	sext.w	a5,a5
    80200e18:	00078663          	beqz	a5,80200e24 <mini_itoa+0xcc>
    80200e1c:	04100793          	li	a5,65
    80200e20:	0080006f          	j	80200e28 <mini_itoa+0xd0>
    80200e24:	06100793          	li	a5,97
    80200e28:	fdc42703          	lw	a4,-36(s0)
    80200e2c:	0ff77713          	zext.b	a4,a4
    80200e30:	00e787bb          	addw	a5,a5,a4
    80200e34:	0ff7f793          	zext.b	a5,a5
    80200e38:	ff67879b          	addiw	a5,a5,-10
    80200e3c:	0ff7f713          	zext.b	a4,a5
    80200e40:	fe843783          	ld	a5,-24(s0)
    80200e44:	00178693          	addi	a3,a5,1
    80200e48:	fed43423          	sd	a3,-24(s0)
    80200e4c:	00e78023          	sb	a4,0(a5)
    80200e50:	fc446783          	lwu	a5,-60(s0)
    80200e54:	fc843703          	ld	a4,-56(s0)
    80200e58:	02f747b3          	div	a5,a4,a5
    80200e5c:	fcf43423          	sd	a5,-56(s0)
    80200e60:	fc843783          	ld	a5,-56(s0)
    80200e64:	f6f04ce3          	bgtz	a5,80200ddc <mini_itoa+0x84>
    80200e68:	fe843703          	ld	a4,-24(s0)
    80200e6c:	fb043783          	ld	a5,-80(s0)
    80200e70:	40f707b3          	sub	a5,a4,a5
    80200e74:	fef42023          	sw	a5,-32(s0)
    80200e78:	0240006f          	j	80200e9c <mini_itoa+0x144>
    80200e7c:	fe843783          	ld	a5,-24(s0)
    80200e80:	00178713          	addi	a4,a5,1
    80200e84:	fee43423          	sd	a4,-24(s0)
    80200e88:	03000713          	li	a4,48
    80200e8c:	00e78023          	sb	a4,0(a5)
    80200e90:	fe042783          	lw	a5,-32(s0)
    80200e94:	0017879b          	addiw	a5,a5,1
    80200e98:	fef42023          	sw	a5,-32(s0)
    80200e9c:	fe042703          	lw	a4,-32(s0)
    80200ea0:	fb842783          	lw	a5,-72(s0)
    80200ea4:	0007071b          	sext.w	a4,a4
    80200ea8:	0007879b          	sext.w	a5,a5
    80200eac:	fcf768e3          	bltu	a4,a5,80200e7c <mini_itoa+0x124>
    80200eb0:	fe442783          	lw	a5,-28(s0)
    80200eb4:	0007879b          	sext.w	a5,a5
    80200eb8:	00078c63          	beqz	a5,80200ed0 <mini_itoa+0x178>
    80200ebc:	fe843783          	ld	a5,-24(s0)
    80200ec0:	00178713          	addi	a4,a5,1
    80200ec4:	fee43423          	sd	a4,-24(s0)
    80200ec8:	02d00713          	li	a4,45
    80200ecc:	00e78023          	sb	a4,0(a5)
    80200ed0:	fe843783          	ld	a5,-24(s0)
    80200ed4:	00078023          	sb	zero,0(a5)
    80200ed8:	fe843703          	ld	a4,-24(s0)
    80200edc:	fb043783          	ld	a5,-80(s0)
    80200ee0:	40f707b3          	sub	a5,a4,a5
    80200ee4:	fcf42c23          	sw	a5,-40(s0)
    80200ee8:	fe042023          	sw	zero,-32(s0)
    80200eec:	0900006f          	j	80200f7c <mini_itoa+0x224>
    80200ef0:	fe046783          	lwu	a5,-32(s0)
    80200ef4:	fb043703          	ld	a4,-80(s0)
    80200ef8:	00f707b3          	add	a5,a4,a5
    80200efc:	0007c783          	lbu	a5,0(a5)
    80200f00:	fcf40ba3          	sb	a5,-41(s0)
    80200f04:	fd842703          	lw	a4,-40(s0)
    80200f08:	fe042783          	lw	a5,-32(s0)
    80200f0c:	40f707bb          	subw	a5,a4,a5
    80200f10:	0007879b          	sext.w	a5,a5
    80200f14:	fff7879b          	addiw	a5,a5,-1
    80200f18:	0007879b          	sext.w	a5,a5
    80200f1c:	02079793          	slli	a5,a5,0x20
    80200f20:	0207d793          	srli	a5,a5,0x20
    80200f24:	fb043703          	ld	a4,-80(s0)
    80200f28:	00f70733          	add	a4,a4,a5
    80200f2c:	fe046783          	lwu	a5,-32(s0)
    80200f30:	fb043683          	ld	a3,-80(s0)
    80200f34:	00f687b3          	add	a5,a3,a5
    80200f38:	00074703          	lbu	a4,0(a4)
    80200f3c:	00e78023          	sb	a4,0(a5)
    80200f40:	fd842703          	lw	a4,-40(s0)
    80200f44:	fe042783          	lw	a5,-32(s0)
    80200f48:	40f707bb          	subw	a5,a4,a5
    80200f4c:	0007879b          	sext.w	a5,a5
    80200f50:	fff7879b          	addiw	a5,a5,-1
    80200f54:	0007879b          	sext.w	a5,a5
    80200f58:	02079793          	slli	a5,a5,0x20
    80200f5c:	0207d793          	srli	a5,a5,0x20
    80200f60:	fb043703          	ld	a4,-80(s0)
    80200f64:	00f707b3          	add	a5,a4,a5
    80200f68:	fd744703          	lbu	a4,-41(s0)
    80200f6c:	00e78023          	sb	a4,0(a5)
    80200f70:	fe042783          	lw	a5,-32(s0)
    80200f74:	0017879b          	addiw	a5,a5,1
    80200f78:	fef42023          	sw	a5,-32(s0)
    80200f7c:	fd842783          	lw	a5,-40(s0)
    80200f80:	0017d79b          	srliw	a5,a5,0x1
    80200f84:	0007871b          	sext.w	a4,a5
    80200f88:	fe042783          	lw	a5,-32(s0)
    80200f8c:	0007879b          	sext.w	a5,a5
    80200f90:	f6e7e0e3          	bltu	a5,a4,80200ef0 <mini_itoa+0x198>
    80200f94:	fd842783          	lw	a5,-40(s0)
    80200f98:	00078513          	mv	a0,a5
    80200f9c:	04813403          	ld	s0,72(sp)
    80200fa0:	05010113          	addi	sp,sp,80
    80200fa4:	00008067          	ret

0000000080200fa8 <_putc>:
    80200fa8:	fe010113          	addi	sp,sp,-32
    80200fac:	00813c23          	sd	s0,24(sp)
    80200fb0:	02010413          	addi	s0,sp,32
    80200fb4:	00050793          	mv	a5,a0
    80200fb8:	feb43023          	sd	a1,-32(s0)
    80200fbc:	fef42623          	sw	a5,-20(s0)
    80200fc0:	fe043783          	ld	a5,-32(s0)
    80200fc4:	0087b703          	ld	a4,8(a5)
    80200fc8:	fe043783          	ld	a5,-32(s0)
    80200fcc:	0007b783          	ld	a5,0(a5)
    80200fd0:	40f707b3          	sub	a5,a4,a5
    80200fd4:	0007879b          	sext.w	a5,a5
    80200fd8:	0017879b          	addiw	a5,a5,1
    80200fdc:	0007871b          	sext.w	a4,a5
    80200fe0:	fe043783          	ld	a5,-32(s0)
    80200fe4:	0107a783          	lw	a5,16(a5)
    80200fe8:	00f76663          	bltu	a4,a5,80200ff4 <_putc+0x4c>
    80200fec:	00000793          	li	a5,0
    80200ff0:	0340006f          	j	80201024 <_putc+0x7c>
    80200ff4:	fe043783          	ld	a5,-32(s0)
    80200ff8:	0087b783          	ld	a5,8(a5)
    80200ffc:	00178693          	addi	a3,a5,1
    80201000:	fe043703          	ld	a4,-32(s0)
    80201004:	00d73423          	sd	a3,8(a4)
    80201008:	fec42703          	lw	a4,-20(s0)
    8020100c:	0ff77713          	zext.b	a4,a4
    80201010:	00e78023          	sb	a4,0(a5)
    80201014:	fe043783          	ld	a5,-32(s0)
    80201018:	0087b783          	ld	a5,8(a5)
    8020101c:	00078023          	sb	zero,0(a5)
    80201020:	00100793          	li	a5,1
    80201024:	00078513          	mv	a0,a5
    80201028:	01813403          	ld	s0,24(sp)
    8020102c:	02010113          	addi	sp,sp,32
    80201030:	00008067          	ret

0000000080201034 <_puts>:
    80201034:	fc010113          	addi	sp,sp,-64
    80201038:	02813c23          	sd	s0,56(sp)
    8020103c:	04010413          	addi	s0,sp,64
    80201040:	fca43c23          	sd	a0,-40(s0)
    80201044:	00058793          	mv	a5,a1
    80201048:	fcc43423          	sd	a2,-56(s0)
    8020104c:	fcf42a23          	sw	a5,-44(s0)
    80201050:	fc843783          	ld	a5,-56(s0)
    80201054:	0107a783          	lw	a5,16(a5)
    80201058:	02079713          	slli	a4,a5,0x20
    8020105c:	02075713          	srli	a4,a4,0x20
    80201060:	fc843783          	ld	a5,-56(s0)
    80201064:	0087b683          	ld	a3,8(a5)
    80201068:	fc843783          	ld	a5,-56(s0)
    8020106c:	0007b783          	ld	a5,0(a5)
    80201070:	40f687b3          	sub	a5,a3,a5
    80201074:	40f70733          	sub	a4,a4,a5
    80201078:	fd446783          	lwu	a5,-44(s0)
    8020107c:	02e7ca63          	blt	a5,a4,802010b0 <_puts+0x7c>
    80201080:	fc843783          	ld	a5,-56(s0)
    80201084:	0107a703          	lw	a4,16(a5)
    80201088:	fc843783          	ld	a5,-56(s0)
    8020108c:	0087b683          	ld	a3,8(a5)
    80201090:	fc843783          	ld	a5,-56(s0)
    80201094:	0007b783          	ld	a5,0(a5)
    80201098:	40f687b3          	sub	a5,a3,a5
    8020109c:	0007879b          	sext.w	a5,a5
    802010a0:	40f707bb          	subw	a5,a4,a5
    802010a4:	0007879b          	sext.w	a5,a5
    802010a8:	fff7879b          	addiw	a5,a5,-1
    802010ac:	fcf42a23          	sw	a5,-44(s0)
    802010b0:	fe042623          	sw	zero,-20(s0)
    802010b4:	0380006f          	j	802010ec <_puts+0xb8>
    802010b8:	fec46783          	lwu	a5,-20(s0)
    802010bc:	fd843703          	ld	a4,-40(s0)
    802010c0:	00f70733          	add	a4,a4,a5
    802010c4:	fc843783          	ld	a5,-56(s0)
    802010c8:	0087b783          	ld	a5,8(a5)
    802010cc:	00178613          	addi	a2,a5,1
    802010d0:	fc843683          	ld	a3,-56(s0)
    802010d4:	00c6b423          	sd	a2,8(a3)
    802010d8:	00074703          	lbu	a4,0(a4)
    802010dc:	00e78023          	sb	a4,0(a5)
    802010e0:	fec42783          	lw	a5,-20(s0)
    802010e4:	0017879b          	addiw	a5,a5,1
    802010e8:	fef42623          	sw	a5,-20(s0)
    802010ec:	fec42703          	lw	a4,-20(s0)
    802010f0:	fd442783          	lw	a5,-44(s0)
    802010f4:	0007071b          	sext.w	a4,a4
    802010f8:	0007879b          	sext.w	a5,a5
    802010fc:	faf76ee3          	bltu	a4,a5,802010b8 <_puts+0x84>
    80201100:	fc843783          	ld	a5,-56(s0)
    80201104:	0087b783          	ld	a5,8(a5)
    80201108:	00078023          	sb	zero,0(a5)
    8020110c:	fd442783          	lw	a5,-44(s0)
    80201110:	00078513          	mv	a0,a5
    80201114:	03813403          	ld	s0,56(sp)
    80201118:	04010113          	addi	sp,sp,64
    8020111c:	00008067          	ret

0000000080201120 <mini_vsnprintf>:
    80201120:	f8010113          	addi	sp,sp,-128
    80201124:	06113c23          	sd	ra,120(sp)
    80201128:	06813823          	sd	s0,112(sp)
    8020112c:	08010413          	addi	s0,sp,128
    80201130:	f8a43c23          	sd	a0,-104(s0)
    80201134:	00058793          	mv	a5,a1
    80201138:	f8c43423          	sd	a2,-120(s0)
    8020113c:	f8d43023          	sd	a3,-128(s0)
    80201140:	f8f42a23          	sw	a5,-108(s0)
    80201144:	f9843783          	ld	a5,-104(s0)
    80201148:	fcf43023          	sd	a5,-64(s0)
    8020114c:	f9843783          	ld	a5,-104(s0)
    80201150:	fcf43423          	sd	a5,-56(s0)
    80201154:	f9442783          	lw	a5,-108(s0)
    80201158:	fcf42823          	sw	a5,-48(s0)
    8020115c:	3580006f          	j	802014b4 <mini_vsnprintf+0x394>
    80201160:	fc843703          	ld	a4,-56(s0)
    80201164:	fc043783          	ld	a5,-64(s0)
    80201168:	40f707b3          	sub	a5,a4,a5
    8020116c:	0007879b          	sext.w	a5,a5
    80201170:	0017879b          	addiw	a5,a5,1
    80201174:	0007871b          	sext.w	a4,a5
    80201178:	fd042783          	lw	a5,-48(s0)
    8020117c:	34f77e63          	bgeu	a4,a5,802014d8 <mini_vsnprintf+0x3b8>
    80201180:	fef44783          	lbu	a5,-17(s0)
    80201184:	0ff7f713          	zext.b	a4,a5
    80201188:	02500793          	li	a5,37
    8020118c:	02f70063          	beq	a4,a5,802011ac <mini_vsnprintf+0x8c>
    80201190:	fef44783          	lbu	a5,-17(s0)
    80201194:	0007879b          	sext.w	a5,a5
    80201198:	fc040713          	addi	a4,s0,-64
    8020119c:	00070593          	mv	a1,a4
    802011a0:	00078513          	mv	a0,a5
    802011a4:	e05ff0ef          	jal	ra,80200fa8 <_putc>
    802011a8:	30c0006f          	j	802014b4 <mini_vsnprintf+0x394>
    802011ac:	fe040723          	sb	zero,-18(s0)
    802011b0:	fe042423          	sw	zero,-24(s0)
    802011b4:	f8843783          	ld	a5,-120(s0)
    802011b8:	00178713          	addi	a4,a5,1
    802011bc:	f8e43423          	sd	a4,-120(s0)
    802011c0:	0007c783          	lbu	a5,0(a5)
    802011c4:	fef407a3          	sb	a5,-17(s0)
    802011c8:	fef44783          	lbu	a5,-17(s0)
    802011cc:	0ff7f713          	zext.b	a4,a5
    802011d0:	03000793          	li	a5,48
    802011d4:	08f71063          	bne	a4,a5,80201254 <mini_vsnprintf+0x134>
    802011d8:	05c0006f          	j	80201234 <mini_vsnprintf+0x114>
    802011dc:	fef44783          	lbu	a5,-17(s0)
    802011e0:	0ff7f793          	zext.b	a5,a5
    802011e4:	2e078e63          	beqz	a5,802014e0 <mini_vsnprintf+0x3c0>
    802011e8:	fef44783          	lbu	a5,-17(s0)
    802011ec:	0ff7f713          	zext.b	a4,a5
    802011f0:	02f00793          	li	a5,47
    802011f4:	06e7f063          	bgeu	a5,a4,80201254 <mini_vsnprintf+0x134>
    802011f8:	fef44783          	lbu	a5,-17(s0)
    802011fc:	0ff7f713          	zext.b	a4,a5
    80201200:	03900793          	li	a5,57
    80201204:	04e7e863          	bltu	a5,a4,80201254 <mini_vsnprintf+0x134>
    80201208:	fee44703          	lbu	a4,-18(s0)
    8020120c:	00070793          	mv	a5,a4
    80201210:	0027979b          	slliw	a5,a5,0x2
    80201214:	00e787bb          	addw	a5,a5,a4
    80201218:	0017979b          	slliw	a5,a5,0x1
    8020121c:	0ff7f793          	zext.b	a5,a5
    80201220:	fef44703          	lbu	a4,-17(s0)
    80201224:	00f707bb          	addw	a5,a4,a5
    80201228:	0ff7f793          	zext.b	a5,a5
    8020122c:	fd07879b          	addiw	a5,a5,-48
    80201230:	fef40723          	sb	a5,-18(s0)
    80201234:	f8843783          	ld	a5,-120(s0)
    80201238:	00178713          	addi	a4,a5,1
    8020123c:	f8e43423          	sd	a4,-120(s0)
    80201240:	0007c783          	lbu	a5,0(a5)
    80201244:	fef407a3          	sb	a5,-17(s0)
    80201248:	fef44783          	lbu	a5,-17(s0)
    8020124c:	0ff7f793          	zext.b	a5,a5
    80201250:	f80796e3          	bnez	a5,802011dc <mini_vsnprintf+0xbc>
    80201254:	fef44783          	lbu	a5,-17(s0)
    80201258:	0ff7f713          	zext.b	a4,a5
    8020125c:	06c00793          	li	a5,108
    80201260:	02f71063          	bne	a4,a5,80201280 <mini_vsnprintf+0x160>
    80201264:	00100793          	li	a5,1
    80201268:	fef42423          	sw	a5,-24(s0)
    8020126c:	f8843783          	ld	a5,-120(s0)
    80201270:	00178713          	addi	a4,a5,1
    80201274:	f8e43423          	sd	a4,-120(s0)
    80201278:	0007c783          	lbu	a5,0(a5)
    8020127c:	fef407a3          	sb	a5,-17(s0)
    80201280:	fef44783          	lbu	a5,-17(s0)
    80201284:	0007879b          	sext.w	a5,a5
    80201288:	26078063          	beqz	a5,802014e8 <mini_vsnprintf+0x3c8>
    8020128c:	00078713          	mv	a4,a5
    80201290:	20074463          	bltz	a4,80201498 <mini_vsnprintf+0x378>
    80201294:	00078693          	mv	a3,a5
    80201298:	07800713          	li	a4,120
    8020129c:	1ed74e63          	blt	a4,a3,80201498 <mini_vsnprintf+0x378>
    802012a0:	00078693          	mv	a3,a5
    802012a4:	05800713          	li	a4,88
    802012a8:	1ee6c863          	blt	a3,a4,80201498 <mini_vsnprintf+0x378>
    802012ac:	fa87869b          	addiw	a3,a5,-88
    802012b0:	0006871b          	sext.w	a4,a3
    802012b4:	02000793          	li	a5,32
    802012b8:	1ee7e063          	bltu	a5,a4,80201498 <mini_vsnprintf+0x378>
    802012bc:	02069793          	slli	a5,a3,0x20
    802012c0:	0207d793          	srli	a5,a5,0x20
    802012c4:	00279713          	slli	a4,a5,0x2
    802012c8:	00005797          	auipc	a5,0x5
    802012cc:	e9078793          	addi	a5,a5,-368 # 80206158 <__RODATA_BEGIN__+0x220>
    802012d0:	00f707b3          	add	a5,a4,a5
    802012d4:	0007a783          	lw	a5,0(a5)
    802012d8:	0007871b          	sext.w	a4,a5
    802012dc:	00005797          	auipc	a5,0x5
    802012e0:	e7c78793          	addi	a5,a5,-388 # 80206158 <__RODATA_BEGIN__+0x220>
    802012e4:	00f707b3          	add	a5,a4,a5
    802012e8:	00078067          	jr	a5
    802012ec:	00100793          	li	a5,1
    802012f0:	fef42423          	sw	a5,-24(s0)
    802012f4:	1c00006f          	j	802014b4 <mini_vsnprintf+0x394>
    802012f8:	fe842783          	lw	a5,-24(s0)
    802012fc:	0007879b          	sext.w	a5,a5
    80201300:	02079063          	bnez	a5,80201320 <mini_vsnprintf+0x200>
    80201304:	f8043783          	ld	a5,-128(s0)
    80201308:	00878713          	addi	a4,a5,8
    8020130c:	f8e43023          	sd	a4,-128(s0)
    80201310:	0007a783          	lw	a5,0(a5)
    80201314:	02079513          	slli	a0,a5,0x20
    80201318:	02055513          	srli	a0,a0,0x20
    8020131c:	0180006f          	j	80201334 <mini_vsnprintf+0x214>
    80201320:	f8043783          	ld	a5,-128(s0)
    80201324:	00878713          	addi	a4,a5,8
    80201328:	f8e43023          	sd	a4,-128(s0)
    8020132c:	0007b783          	ld	a5,0(a5)
    80201330:	00078513          	mv	a0,a5
    80201334:	fef44783          	lbu	a5,-17(s0)
    80201338:	0007871b          	sext.w	a4,a5
    8020133c:	07500793          	li	a5,117
    80201340:	40f707b3          	sub	a5,a4,a5
    80201344:	0017b793          	seqz	a5,a5
    80201348:	0ff7f793          	zext.b	a5,a5
    8020134c:	0007869b          	sext.w	a3,a5
    80201350:	fee44783          	lbu	a5,-18(s0)
    80201354:	0007879b          	sext.w	a5,a5
    80201358:	fa840713          	addi	a4,s0,-88
    8020135c:	00000613          	li	a2,0
    80201360:	00a00593          	li	a1,10
    80201364:	9f5ff0ef          	jal	ra,80200d58 <mini_itoa>
    80201368:	00050793          	mv	a5,a0
    8020136c:	fcf42e23          	sw	a5,-36(s0)
    80201370:	fc040693          	addi	a3,s0,-64
    80201374:	fdc42703          	lw	a4,-36(s0)
    80201378:	fa840793          	addi	a5,s0,-88
    8020137c:	00068613          	mv	a2,a3
    80201380:	00070593          	mv	a1,a4
    80201384:	00078513          	mv	a0,a5
    80201388:	cadff0ef          	jal	ra,80201034 <_puts>
    8020138c:	fe042423          	sw	zero,-24(s0)
    80201390:	1240006f          	j	802014b4 <mini_vsnprintf+0x394>
    80201394:	fe842783          	lw	a5,-24(s0)
    80201398:	0007879b          	sext.w	a5,a5
    8020139c:	02079063          	bnez	a5,802013bc <mini_vsnprintf+0x29c>
    802013a0:	f8043783          	ld	a5,-128(s0)
    802013a4:	00878713          	addi	a4,a5,8
    802013a8:	f8e43023          	sd	a4,-128(s0)
    802013ac:	0007a783          	lw	a5,0(a5)
    802013b0:	02079513          	slli	a0,a5,0x20
    802013b4:	02055513          	srli	a0,a0,0x20
    802013b8:	0180006f          	j	802013d0 <mini_vsnprintf+0x2b0>
    802013bc:	f8043783          	ld	a5,-128(s0)
    802013c0:	00878713          	addi	a4,a5,8
    802013c4:	f8e43023          	sd	a4,-128(s0)
    802013c8:	0007b783          	ld	a5,0(a5)
    802013cc:	00078513          	mv	a0,a5
    802013d0:	fef44783          	lbu	a5,-17(s0)
    802013d4:	0007871b          	sext.w	a4,a5
    802013d8:	05800793          	li	a5,88
    802013dc:	40f707b3          	sub	a5,a4,a5
    802013e0:	0017b793          	seqz	a5,a5
    802013e4:	0ff7f793          	zext.b	a5,a5
    802013e8:	0007861b          	sext.w	a2,a5
    802013ec:	fee44783          	lbu	a5,-18(s0)
    802013f0:	0007879b          	sext.w	a5,a5
    802013f4:	fa840713          	addi	a4,s0,-88
    802013f8:	00100693          	li	a3,1
    802013fc:	01000593          	li	a1,16
    80201400:	959ff0ef          	jal	ra,80200d58 <mini_itoa>
    80201404:	00050793          	mv	a5,a0
    80201408:	fcf42e23          	sw	a5,-36(s0)
    8020140c:	fc040693          	addi	a3,s0,-64
    80201410:	fdc42703          	lw	a4,-36(s0)
    80201414:	fa840793          	addi	a5,s0,-88
    80201418:	00068613          	mv	a2,a3
    8020141c:	00070593          	mv	a1,a4
    80201420:	00078513          	mv	a0,a5
    80201424:	c11ff0ef          	jal	ra,80201034 <_puts>
    80201428:	fe042423          	sw	zero,-24(s0)
    8020142c:	0880006f          	j	802014b4 <mini_vsnprintf+0x394>
    80201430:	f8043783          	ld	a5,-128(s0)
    80201434:	00878713          	addi	a4,a5,8
    80201438:	f8e43023          	sd	a4,-128(s0)
    8020143c:	0007a783          	lw	a5,0(a5)
    80201440:	0ff7f793          	zext.b	a5,a5
    80201444:	0007879b          	sext.w	a5,a5
    80201448:	fc040713          	addi	a4,s0,-64
    8020144c:	00070593          	mv	a1,a4
    80201450:	00078513          	mv	a0,a5
    80201454:	b55ff0ef          	jal	ra,80200fa8 <_putc>
    80201458:	05c0006f          	j	802014b4 <mini_vsnprintf+0x394>
    8020145c:	f8043783          	ld	a5,-128(s0)
    80201460:	00878713          	addi	a4,a5,8
    80201464:	f8e43023          	sd	a4,-128(s0)
    80201468:	0007b783          	ld	a5,0(a5)
    8020146c:	fef43023          	sd	a5,-32(s0)
    80201470:	fe043503          	ld	a0,-32(s0)
    80201474:	899ff0ef          	jal	ra,80200d0c <mini_strlen>
    80201478:	00050793          	mv	a5,a0
    8020147c:	0007879b          	sext.w	a5,a5
    80201480:	fc040713          	addi	a4,s0,-64
    80201484:	00070613          	mv	a2,a4
    80201488:	00078593          	mv	a1,a5
    8020148c:	fe043503          	ld	a0,-32(s0)
    80201490:	ba5ff0ef          	jal	ra,80201034 <_puts>
    80201494:	0200006f          	j	802014b4 <mini_vsnprintf+0x394>
    80201498:	fef44783          	lbu	a5,-17(s0)
    8020149c:	0007879b          	sext.w	a5,a5
    802014a0:	fc040713          	addi	a4,s0,-64
    802014a4:	00070593          	mv	a1,a4
    802014a8:	00078513          	mv	a0,a5
    802014ac:	afdff0ef          	jal	ra,80200fa8 <_putc>
    802014b0:	00000013          	nop
    802014b4:	f8843783          	ld	a5,-120(s0)
    802014b8:	00178713          	addi	a4,a5,1
    802014bc:	f8e43423          	sd	a4,-120(s0)
    802014c0:	0007c783          	lbu	a5,0(a5)
    802014c4:	fef407a3          	sb	a5,-17(s0)
    802014c8:	fef44783          	lbu	a5,-17(s0)
    802014cc:	0ff7f793          	zext.b	a5,a5
    802014d0:	c80798e3          	bnez	a5,80201160 <mini_vsnprintf+0x40>
    802014d4:	0180006f          	j	802014ec <mini_vsnprintf+0x3cc>
    802014d8:	00000013          	nop
    802014dc:	0100006f          	j	802014ec <mini_vsnprintf+0x3cc>
    802014e0:	00000013          	nop
    802014e4:	0080006f          	j	802014ec <mini_vsnprintf+0x3cc>
    802014e8:	00000013          	nop
    802014ec:	fc843703          	ld	a4,-56(s0)
    802014f0:	fc043783          	ld	a5,-64(s0)
    802014f4:	40f707b3          	sub	a5,a4,a5
    802014f8:	0007879b          	sext.w	a5,a5
    802014fc:	00078513          	mv	a0,a5
    80201500:	07813083          	ld	ra,120(sp)
    80201504:	07013403          	ld	s0,112(sp)
    80201508:	08010113          	addi	sp,sp,128
    8020150c:	00008067          	ret

0000000080201510 <vprintk>:
    80201510:	ed010113          	addi	sp,sp,-304
    80201514:	12113423          	sd	ra,296(sp)
    80201518:	12813023          	sd	s0,288(sp)
    8020151c:	13010413          	addi	s0,sp,304
    80201520:	eca43c23          	sd	a0,-296(s0)
    80201524:	ecb43823          	sd	a1,-304(s0)
    80201528:	ed043783          	ld	a5,-304(s0)
    8020152c:	fef43023          	sd	a5,-32(s0)
    80201530:	fe043703          	ld	a4,-32(s0)
    80201534:	ee040793          	addi	a5,s0,-288
    80201538:	00070693          	mv	a3,a4
    8020153c:	ed843603          	ld	a2,-296(s0)
    80201540:	10000593          	li	a1,256
    80201544:	00078513          	mv	a0,a5
    80201548:	bd9ff0ef          	jal	ra,80201120 <mini_vsnprintf>
    8020154c:	00050793          	mv	a5,a0
    80201550:	fef42623          	sw	a5,-20(s0)
    80201554:	fec42783          	lw	a5,-20(s0)
    80201558:	ff040713          	addi	a4,s0,-16
    8020155c:	00f707b3          	add	a5,a4,a5
    80201560:	ee078823          	sb	zero,-272(a5)
    80201564:	b45fe0ef          	jal	ra,802000a8 <disable_preempt>
    80201568:	ee040793          	addi	a5,s0,-288
    8020156c:	00078513          	mv	a0,a5
    80201570:	f6cff0ef          	jal	ra,80200cdc <port_write>
    80201574:	b0dfe0ef          	jal	ra,80200080 <enable_preempt>
    80201578:	fec42783          	lw	a5,-20(s0)
    8020157c:	00078513          	mv	a0,a5
    80201580:	12813083          	ld	ra,296(sp)
    80201584:	12013403          	ld	s0,288(sp)
    80201588:	13010113          	addi	sp,sp,304
    8020158c:	00008067          	ret

0000000080201590 <printk>:
    80201590:	f9010113          	addi	sp,sp,-112
    80201594:	02113423          	sd	ra,40(sp)
    80201598:	02813023          	sd	s0,32(sp)
    8020159c:	03010413          	addi	s0,sp,48
    802015a0:	fca43c23          	sd	a0,-40(s0)
    802015a4:	00b43423          	sd	a1,8(s0)
    802015a8:	00c43823          	sd	a2,16(s0)
    802015ac:	00d43c23          	sd	a3,24(s0)
    802015b0:	02e43023          	sd	a4,32(s0)
    802015b4:	02f43423          	sd	a5,40(s0)
    802015b8:	03043823          	sd	a6,48(s0)
    802015bc:	03143c23          	sd	a7,56(s0)
    802015c0:	fe042623          	sw	zero,-20(s0)
    802015c4:	04040793          	addi	a5,s0,64
    802015c8:	fcf43823          	sd	a5,-48(s0)
    802015cc:	fd043783          	ld	a5,-48(s0)
    802015d0:	fc878793          	addi	a5,a5,-56
    802015d4:	fef43023          	sd	a5,-32(s0)
    802015d8:	fe043783          	ld	a5,-32(s0)
    802015dc:	00078593          	mv	a1,a5
    802015e0:	fd843503          	ld	a0,-40(s0)
    802015e4:	f2dff0ef          	jal	ra,80201510 <vprintk>
    802015e8:	00050793          	mv	a5,a0
    802015ec:	fef42623          	sw	a5,-20(s0)
    802015f0:	fec42783          	lw	a5,-20(s0)
    802015f4:	00078513          	mv	a0,a5
    802015f8:	02813083          	ld	ra,40(sp)
    802015fc:	02013403          	ld	s0,32(sp)
    80201600:	07010113          	addi	sp,sp,112
    80201604:	00008067          	ret

0000000080201608 <_list_add>:
    80201608:	fd010113          	addi	sp,sp,-48
    8020160c:	02813423          	sd	s0,40(sp)
    80201610:	03010413          	addi	s0,sp,48
    80201614:	fea43423          	sd	a0,-24(s0)
    80201618:	feb43023          	sd	a1,-32(s0)
    8020161c:	fcc43c23          	sd	a2,-40(s0)
    80201620:	fd843783          	ld	a5,-40(s0)
    80201624:	fe843703          	ld	a4,-24(s0)
    80201628:	00e7b423          	sd	a4,8(a5)
    8020162c:	fe843783          	ld	a5,-24(s0)
    80201630:	fd843703          	ld	a4,-40(s0)
    80201634:	00e7b023          	sd	a4,0(a5)
    80201638:	fe843783          	ld	a5,-24(s0)
    8020163c:	fe043703          	ld	a4,-32(s0)
    80201640:	00e7b423          	sd	a4,8(a5)
    80201644:	fe043783          	ld	a5,-32(s0)
    80201648:	fe843703          	ld	a4,-24(s0)
    8020164c:	00e7b023          	sd	a4,0(a5)
    80201650:	00000013          	nop
    80201654:	02813403          	ld	s0,40(sp)
    80201658:	03010113          	addi	sp,sp,48
    8020165c:	00008067          	ret

0000000080201660 <_list_del>:
    80201660:	fe010113          	addi	sp,sp,-32
    80201664:	00813c23          	sd	s0,24(sp)
    80201668:	02010413          	addi	s0,sp,32
    8020166c:	fea43423          	sd	a0,-24(s0)
    80201670:	feb43023          	sd	a1,-32(s0)
    80201674:	fe043783          	ld	a5,-32(s0)
    80201678:	fe843703          	ld	a4,-24(s0)
    8020167c:	00e7b423          	sd	a4,8(a5)
    80201680:	fe843783          	ld	a5,-24(s0)
    80201684:	fe043703          	ld	a4,-32(s0)
    80201688:	00e7b023          	sd	a4,0(a5)
    8020168c:	00000013          	nop
    80201690:	01813403          	ld	s0,24(sp)
    80201694:	02010113          	addi	sp,sp,32
    80201698:	00008067          	ret

000000008020169c <list_del>:
    8020169c:	fe010113          	addi	sp,sp,-32
    802016a0:	00113c23          	sd	ra,24(sp)
    802016a4:	00813823          	sd	s0,16(sp)
    802016a8:	02010413          	addi	s0,sp,32
    802016ac:	fea43423          	sd	a0,-24(s0)
    802016b0:	fe843783          	ld	a5,-24(s0)
    802016b4:	0087b783          	ld	a5,8(a5)
    802016b8:	02078e63          	beqz	a5,802016f4 <list_del+0x58>
    802016bc:	fe843783          	ld	a5,-24(s0)
    802016c0:	0007b783          	ld	a5,0(a5)
    802016c4:	02078863          	beqz	a5,802016f4 <list_del+0x58>
    802016c8:	fe843783          	ld	a5,-24(s0)
    802016cc:	0087b703          	ld	a4,8(a5)
    802016d0:	fe843783          	ld	a5,-24(s0)
    802016d4:	0007b783          	ld	a5,0(a5)
    802016d8:	00078593          	mv	a1,a5
    802016dc:	00070513          	mv	a0,a4
    802016e0:	f81ff0ef          	jal	ra,80201660 <_list_del>
    802016e4:	fe843783          	ld	a5,-24(s0)
    802016e8:	0007b423          	sd	zero,8(a5)
    802016ec:	fe843783          	ld	a5,-24(s0)
    802016f0:	0007b023          	sd	zero,0(a5)
    802016f4:	00000013          	nop
    802016f8:	01813083          	ld	ra,24(sp)
    802016fc:	01013403          	ld	s0,16(sp)
    80201700:	02010113          	addi	sp,sp,32
    80201704:	00008067          	ret

0000000080201708 <list_add_tail>:
    80201708:	fe010113          	addi	sp,sp,-32
    8020170c:	00113c23          	sd	ra,24(sp)
    80201710:	00813823          	sd	s0,16(sp)
    80201714:	02010413          	addi	s0,sp,32
    80201718:	fea43423          	sd	a0,-24(s0)
    8020171c:	feb43023          	sd	a1,-32(s0)
    80201720:	fe043783          	ld	a5,-32(s0)
    80201724:	0087b783          	ld	a5,8(a5)
    80201728:	fe043603          	ld	a2,-32(s0)
    8020172c:	00078593          	mv	a1,a5
    80201730:	fe843503          	ld	a0,-24(s0)
    80201734:	ed5ff0ef          	jal	ra,80201608 <_list_add>
    80201738:	00000013          	nop
    8020173c:	01813083          	ld	ra,24(sp)
    80201740:	01013403          	ld	s0,16(sp)
    80201744:	02010113          	addi	sp,sp,32
    80201748:	00008067          	ret

000000008020174c <list_empty>:
    8020174c:	fe010113          	addi	sp,sp,-32
    80201750:	00813c23          	sd	s0,24(sp)
    80201754:	02010413          	addi	s0,sp,32
    80201758:	fea43423          	sd	a0,-24(s0)
    8020175c:	fe843783          	ld	a5,-24(s0)
    80201760:	0007b783          	ld	a5,0(a5)
    80201764:	fe843703          	ld	a4,-24(s0)
    80201768:	40f707b3          	sub	a5,a4,a5
    8020176c:	0017b793          	seqz	a5,a5
    80201770:	0ff7f793          	zext.b	a5,a5
    80201774:	0007879b          	sext.w	a5,a5
    80201778:	00078513          	mv	a0,a5
    8020177c:	01813403          	ld	s0,24(sp)
    80201780:	02010113          	addi	sp,sp,32
    80201784:	00008067          	ret

0000000080201788 <realAllocPage>:
    80201788:	fd010113          	addi	sp,sp,-48
    8020178c:	02813423          	sd	s0,40(sp)
    80201790:	03010413          	addi	s0,sp,48
    80201794:	00050793          	mv	a5,a0
    80201798:	fcf42e23          	sw	a5,-36(s0)
    8020179c:	82818793          	addi	a5,gp,-2008 # 802068d8 <memCurr>
    802017a0:	0007b703          	ld	a4,0(a5)
    802017a4:	000017b7          	lui	a5,0x1
    802017a8:	fff78793          	addi	a5,a5,-1 # fff <_start-0x801ff001>
    802017ac:	00f70733          	add	a4,a4,a5
    802017b0:	fffff7b7          	lui	a5,0xfffff
    802017b4:	00f777b3          	and	a5,a4,a5
    802017b8:	fef43423          	sd	a5,-24(s0)
    802017bc:	fdc42783          	lw	a5,-36(s0)
    802017c0:	00c7979b          	slliw	a5,a5,0xc
    802017c4:	0007879b          	sext.w	a5,a5
    802017c8:	00078713          	mv	a4,a5
    802017cc:	fe843783          	ld	a5,-24(s0)
    802017d0:	00f70733          	add	a4,a4,a5
    802017d4:	82818793          	addi	a5,gp,-2008 # 802068d8 <memCurr>
    802017d8:	00e7b023          	sd	a4,0(a5) # fffffffffffff000 <_end+0xffffffff7fdf5350>
    802017dc:	fe843783          	ld	a5,-24(s0)
    802017e0:	00078513          	mv	a0,a5
    802017e4:	02813403          	ld	s0,40(sp)
    802017e8:	03010113          	addi	sp,sp,48
    802017ec:	00008067          	ret

00000000802017f0 <allocPage>:
    802017f0:	fd010113          	addi	sp,sp,-48
    802017f4:	02113423          	sd	ra,40(sp)
    802017f8:	02813023          	sd	s0,32(sp)
    802017fc:	03010413          	addi	s0,sp,48
    80201800:	00050793          	mv	a5,a0
    80201804:	fcf42e23          	sw	a5,-36(s0)
    80201808:	fdc42783          	lw	a5,-36(s0)
    8020180c:	0007871b          	sext.w	a4,a5
    80201810:	00100793          	li	a5,1
    80201814:	04f71263          	bne	a4,a5,80201858 <allocPage+0x68>
    80201818:	00005517          	auipc	a0,0x5
    8020181c:	f1850513          	addi	a0,a0,-232 # 80206730 <freePageList>
    80201820:	f2dff0ef          	jal	ra,8020174c <list_empty>
    80201824:	00050793          	mv	a5,a0
    80201828:	02079863          	bnez	a5,80201858 <allocPage+0x68>
    8020182c:	00005797          	auipc	a5,0x5
    80201830:	f0478793          	addi	a5,a5,-252 # 80206730 <freePageList>
    80201834:	0007b783          	ld	a5,0(a5)
    80201838:	fef43423          	sd	a5,-24(s0)
    8020183c:	00005797          	auipc	a5,0x5
    80201840:	ef478793          	addi	a5,a5,-268 # 80206730 <freePageList>
    80201844:	0007b783          	ld	a5,0(a5)
    80201848:	00078513          	mv	a0,a5
    8020184c:	e51ff0ef          	jal	ra,8020169c <list_del>
    80201850:	fe843783          	ld	a5,-24(s0)
    80201854:	0140006f          	j	80201868 <allocPage+0x78>
    80201858:	fdc42783          	lw	a5,-36(s0)
    8020185c:	00078513          	mv	a0,a5
    80201860:	f29ff0ef          	jal	ra,80201788 <realAllocPage>
    80201864:	00050793          	mv	a5,a0
    80201868:	00078513          	mv	a0,a5
    8020186c:	02813083          	ld	ra,40(sp)
    80201870:	02013403          	ld	s0,32(sp)
    80201874:	03010113          	addi	sp,sp,48
    80201878:	00008067          	ret

000000008020187c <freePage>:
    8020187c:	fd010113          	addi	sp,sp,-48
    80201880:	02113423          	sd	ra,40(sp)
    80201884:	02813023          	sd	s0,32(sp)
    80201888:	03010413          	addi	s0,sp,48
    8020188c:	fca43c23          	sd	a0,-40(s0)
    80201890:	00058793          	mv	a5,a1
    80201894:	fcf42a23          	sw	a5,-44(s0)
    80201898:	fe042623          	sw	zero,-20(s0)
    8020189c:	0380006f          	j	802018d4 <freePage+0x58>
    802018a0:	fec42783          	lw	a5,-20(s0)
    802018a4:	00c7979b          	slliw	a5,a5,0xc
    802018a8:	0007879b          	sext.w	a5,a5
    802018ac:	00078713          	mv	a4,a5
    802018b0:	fd843783          	ld	a5,-40(s0)
    802018b4:	00f707b3          	add	a5,a4,a5
    802018b8:	00005597          	auipc	a1,0x5
    802018bc:	e7858593          	addi	a1,a1,-392 # 80206730 <freePageList>
    802018c0:	00078513          	mv	a0,a5
    802018c4:	e45ff0ef          	jal	ra,80201708 <list_add_tail>
    802018c8:	fec42783          	lw	a5,-20(s0)
    802018cc:	0017879b          	addiw	a5,a5,1
    802018d0:	fef42623          	sw	a5,-20(s0)
    802018d4:	fec42703          	lw	a4,-20(s0)
    802018d8:	fd442783          	lw	a5,-44(s0)
    802018dc:	0007071b          	sext.w	a4,a4
    802018e0:	0007879b          	sext.w	a5,a5
    802018e4:	faf74ee3          	blt	a4,a5,802018a0 <freePage+0x24>
    802018e8:	00000013          	nop
    802018ec:	00000013          	nop
    802018f0:	02813083          	ld	ra,40(sp)
    802018f4:	02013403          	ld	s0,32(sp)
    802018f8:	03010113          	addi	sp,sp,48
    802018fc:	00008067          	ret

0000000080201900 <kmalloc>:
    80201900:	fd010113          	addi	sp,sp,-48
    80201904:	02813423          	sd	s0,40(sp)
    80201908:	03010413          	addi	s0,sp,48
    8020190c:	fca43c23          	sd	a0,-40(s0)
    80201910:	82818793          	addi	a5,gp,-2008 # 802068d8 <memCurr>
    80201914:	0007b783          	ld	a5,0(a5)
    80201918:	00378793          	addi	a5,a5,3
    8020191c:	ffc7f793          	andi	a5,a5,-4
    80201920:	fef43423          	sd	a5,-24(s0)
    80201924:	fe843703          	ld	a4,-24(s0)
    80201928:	fd843783          	ld	a5,-40(s0)
    8020192c:	00f70733          	add	a4,a4,a5
    80201930:	82818793          	addi	a5,gp,-2008 # 802068d8 <memCurr>
    80201934:	00e7b023          	sd	a4,0(a5)
    80201938:	fe843783          	ld	a5,-24(s0)
    8020193c:	00078513          	mv	a0,a5
    80201940:	02813403          	ld	s0,40(sp)
    80201944:	03010113          	addi	sp,sp,48
    80201948:	00008067          	ret

000000008020194c <init_list_head>:
    8020194c:	fe010113          	addi	sp,sp,-32
    80201950:	00813c23          	sd	s0,24(sp)
    80201954:	02010413          	addi	s0,sp,32
    80201958:	fea43423          	sd	a0,-24(s0)
    8020195c:	fe843783          	ld	a5,-24(s0)
    80201960:	fe843703          	ld	a4,-24(s0)
    80201964:	00e7b023          	sd	a4,0(a5)
    80201968:	fe843783          	ld	a5,-24(s0)
    8020196c:	fe843703          	ld	a4,-24(s0)
    80201970:	00e7b423          	sd	a4,8(a5)
    80201974:	00000013          	nop
    80201978:	01813403          	ld	s0,24(sp)
    8020197c:	02010113          	addi	sp,sp,32
    80201980:	00008067          	ret

0000000080201984 <_list_add>:
    80201984:	fd010113          	addi	sp,sp,-48
    80201988:	02813423          	sd	s0,40(sp)
    8020198c:	03010413          	addi	s0,sp,48
    80201990:	fea43423          	sd	a0,-24(s0)
    80201994:	feb43023          	sd	a1,-32(s0)
    80201998:	fcc43c23          	sd	a2,-40(s0)
    8020199c:	fd843783          	ld	a5,-40(s0)
    802019a0:	fe843703          	ld	a4,-24(s0)
    802019a4:	00e7b423          	sd	a4,8(a5)
    802019a8:	fe843783          	ld	a5,-24(s0)
    802019ac:	fd843703          	ld	a4,-40(s0)
    802019b0:	00e7b023          	sd	a4,0(a5)
    802019b4:	fe843783          	ld	a5,-24(s0)
    802019b8:	fe043703          	ld	a4,-32(s0)
    802019bc:	00e7b423          	sd	a4,8(a5)
    802019c0:	fe043783          	ld	a5,-32(s0)
    802019c4:	fe843703          	ld	a4,-24(s0)
    802019c8:	00e7b023          	sd	a4,0(a5)
    802019cc:	00000013          	nop
    802019d0:	02813403          	ld	s0,40(sp)
    802019d4:	03010113          	addi	sp,sp,48
    802019d8:	00008067          	ret

00000000802019dc <_list_del>:
    802019dc:	fe010113          	addi	sp,sp,-32
    802019e0:	00813c23          	sd	s0,24(sp)
    802019e4:	02010413          	addi	s0,sp,32
    802019e8:	fea43423          	sd	a0,-24(s0)
    802019ec:	feb43023          	sd	a1,-32(s0)
    802019f0:	fe043783          	ld	a5,-32(s0)
    802019f4:	fe843703          	ld	a4,-24(s0)
    802019f8:	00e7b423          	sd	a4,8(a5)
    802019fc:	fe843783          	ld	a5,-24(s0)
    80201a00:	fe043703          	ld	a4,-32(s0)
    80201a04:	00e7b023          	sd	a4,0(a5)
    80201a08:	00000013          	nop
    80201a0c:	01813403          	ld	s0,24(sp)
    80201a10:	02010113          	addi	sp,sp,32
    80201a14:	00008067          	ret

0000000080201a18 <list_del>:
    80201a18:	fe010113          	addi	sp,sp,-32
    80201a1c:	00113c23          	sd	ra,24(sp)
    80201a20:	00813823          	sd	s0,16(sp)
    80201a24:	02010413          	addi	s0,sp,32
    80201a28:	fea43423          	sd	a0,-24(s0)
    80201a2c:	fe843783          	ld	a5,-24(s0)
    80201a30:	0087b783          	ld	a5,8(a5)
    80201a34:	02078e63          	beqz	a5,80201a70 <list_del+0x58>
    80201a38:	fe843783          	ld	a5,-24(s0)
    80201a3c:	0007b783          	ld	a5,0(a5)
    80201a40:	02078863          	beqz	a5,80201a70 <list_del+0x58>
    80201a44:	fe843783          	ld	a5,-24(s0)
    80201a48:	0087b703          	ld	a4,8(a5)
    80201a4c:	fe843783          	ld	a5,-24(s0)
    80201a50:	0007b783          	ld	a5,0(a5)
    80201a54:	00078593          	mv	a1,a5
    80201a58:	00070513          	mv	a0,a4
    80201a5c:	f81ff0ef          	jal	ra,802019dc <_list_del>
    80201a60:	fe843783          	ld	a5,-24(s0)
    80201a64:	0007b423          	sd	zero,8(a5)
    80201a68:	fe843783          	ld	a5,-24(s0)
    80201a6c:	0007b023          	sd	zero,0(a5)
    80201a70:	00000013          	nop
    80201a74:	01813083          	ld	ra,24(sp)
    80201a78:	01013403          	ld	s0,16(sp)
    80201a7c:	02010113          	addi	sp,sp,32
    80201a80:	00008067          	ret

0000000080201a84 <list_add_tail>:
    80201a84:	fe010113          	addi	sp,sp,-32
    80201a88:	00113c23          	sd	ra,24(sp)
    80201a8c:	00813823          	sd	s0,16(sp)
    80201a90:	02010413          	addi	s0,sp,32
    80201a94:	fea43423          	sd	a0,-24(s0)
    80201a98:	feb43023          	sd	a1,-32(s0)
    80201a9c:	fe043783          	ld	a5,-32(s0)
    80201aa0:	0087b783          	ld	a5,8(a5)
    80201aa4:	fe043603          	ld	a2,-32(s0)
    80201aa8:	00078593          	mv	a1,a5
    80201aac:	fe843503          	ld	a0,-24(s0)
    80201ab0:	ed5ff0ef          	jal	ra,80201984 <_list_add>
    80201ab4:	00000013          	nop
    80201ab8:	01813083          	ld	ra,24(sp)
    80201abc:	01013403          	ld	s0,16(sp)
    80201ac0:	02010113          	addi	sp,sp,32
    80201ac4:	00008067          	ret

0000000080201ac8 <list_empty>:
    80201ac8:	fe010113          	addi	sp,sp,-32
    80201acc:	00813c23          	sd	s0,24(sp)
    80201ad0:	02010413          	addi	s0,sp,32
    80201ad4:	fea43423          	sd	a0,-24(s0)
    80201ad8:	fe843783          	ld	a5,-24(s0)
    80201adc:	0007b783          	ld	a5,0(a5)
    80201ae0:	fe843703          	ld	a4,-24(s0)
    80201ae4:	40f707b3          	sub	a5,a4,a5
    80201ae8:	0017b793          	seqz	a5,a5
    80201aec:	0ff7f793          	zext.b	a5,a5
    80201af0:	0007879b          	sext.w	a5,a5
    80201af4:	00078513          	mv	a0,a5
    80201af8:	01813403          	ld	s0,24(sp)
    80201afc:	02010113          	addi	sp,sp,32
    80201b00:	00008067          	ret

0000000080201b04 <sbi_shutdown>:
    80201b04:	ff010113          	addi	sp,sp,-16
    80201b08:	00813423          	sd	s0,8(sp)
    80201b0c:	01010413          	addi	s0,sp,16
    80201b10:	00000513          	li	a0,0
    80201b14:	00000593          	li	a1,0
    80201b18:	00000613          	li	a2,0
    80201b1c:	00800893          	li	a7,8
    80201b20:	00000073          	ecall
    80201b24:	00000013          	nop
    80201b28:	00813403          	ld	s0,8(sp)
    80201b2c:	01010113          	addi	sp,sp,16
    80201b30:	00008067          	ret

0000000080201b34 <_panic>:
    80201b34:	fd010113          	addi	sp,sp,-48
    80201b38:	02113423          	sd	ra,40(sp)
    80201b3c:	02813023          	sd	s0,32(sp)
    80201b40:	03010413          	addi	s0,sp,48
    80201b44:	fea43423          	sd	a0,-24(s0)
    80201b48:	00058793          	mv	a5,a1
    80201b4c:	fcc43c23          	sd	a2,-40(s0)
    80201b50:	fef42223          	sw	a5,-28(s0)
    80201b54:	fe442783          	lw	a5,-28(s0)
    80201b58:	00078693          	mv	a3,a5
    80201b5c:	fe843603          	ld	a2,-24(s0)
    80201b60:	fd843583          	ld	a1,-40(s0)
    80201b64:	00004517          	auipc	a0,0x4
    80201b68:	6fc50513          	addi	a0,a0,1788 # 80206260 <__RODATA_BEGIN__+0x328>
    80201b6c:	a25ff0ef          	jal	ra,80201590 <printk>
    80201b70:	f95ff0ef          	jal	ra,80201b04 <sbi_shutdown>
    80201b74:	0000006f          	j	80201b74 <_panic+0x40>

0000000080201b78 <do_scheduler>:
    80201b78:	fe010113          	addi	sp,sp,-32
    80201b7c:	00113c23          	sd	ra,24(sp)
    80201b80:	00813823          	sd	s0,16(sp)
    80201b84:	02010413          	addi	s0,sp,32
    80201b88:	84018793          	addi	a5,gp,-1984 # 802068f0 <current_running>
    80201b8c:	0007b783          	ld	a5,0(a5)
    80201b90:	fef43423          	sd	a5,-24(s0)
    80201b94:	00005517          	auipc	a0,0x5
    80201b98:	c0c50513          	addi	a0,a0,-1012 # 802067a0 <ready_queue>
    80201b9c:	f2dff0ef          	jal	ra,80201ac8 <list_empty>
    80201ba0:	00050793          	mv	a5,a0
    80201ba4:	02079463          	bnez	a5,80201bcc <do_scheduler+0x54>
    80201ba8:	00005797          	auipc	a5,0x5
    80201bac:	bf878793          	addi	a5,a5,-1032 # 802067a0 <ready_queue>
    80201bb0:	0007b783          	ld	a5,0(a5)
    80201bb4:	fef43023          	sd	a5,-32(s0)
    80201bb8:	fe043783          	ld	a5,-32(s0)
    80201bbc:	fd878713          	addi	a4,a5,-40
    80201bc0:	84018793          	addi	a5,gp,-1984 # 802068f0 <current_running>
    80201bc4:	00e7b023          	sd	a4,0(a5)
    80201bc8:	02c0006f          	j	80201bf4 <do_scheduler+0x7c>
    80201bcc:	84018793          	addi	a5,gp,-1984 # 802068f0 <current_running>
    80201bd0:	0007b783          	ld	a5,0(a5)
    80201bd4:	0507a783          	lw	a5,80(a5)
    80201bd8:	00078713          	mv	a4,a5
    80201bdc:	00100793          	li	a5,1
    80201be0:	12f70063          	beq	a4,a5,80201d00 <do_scheduler+0x188>
    80201be4:	84018793          	addi	a5,gp,-1984 # 802068f0 <current_running>
    80201be8:	00005717          	auipc	a4,0x5
    80201bec:	b5870713          	addi	a4,a4,-1192 # 80206740 <pid0_pcb>
    80201bf0:	00e7b023          	sd	a4,0(a5)
    80201bf4:	84018793          	addi	a5,gp,-1984 # 802068f0 <current_running>
    80201bf8:	0007b783          	ld	a5,0(a5)
    80201bfc:	fe843703          	ld	a4,-24(s0)
    80201c00:	10f70263          	beq	a4,a5,80201d04 <do_scheduler+0x18c>
    80201c04:	fe843783          	ld	a5,-24(s0)
    80201c08:	0507a783          	lw	a5,80(a5)
    80201c0c:	00078713          	mv	a4,a5
    80201c10:	00100793          	li	a5,1
    80201c14:	02f71c63          	bne	a4,a5,80201c4c <do_scheduler+0xd4>
    80201c18:	fe843783          	ld	a5,-24(s0)
    80201c1c:	00200713          	li	a4,2
    80201c20:	04e7a823          	sw	a4,80(a5)
    80201c24:	fe843703          	ld	a4,-24(s0)
    80201c28:	00005797          	auipc	a5,0x5
    80201c2c:	b1878793          	addi	a5,a5,-1256 # 80206740 <pid0_pcb>
    80201c30:	00f70e63          	beq	a4,a5,80201c4c <do_scheduler+0xd4>
    80201c34:	fe843783          	ld	a5,-24(s0)
    80201c38:	02878793          	addi	a5,a5,40
    80201c3c:	00005597          	auipc	a1,0x5
    80201c40:	b6458593          	addi	a1,a1,-1180 # 802067a0 <ready_queue>
    80201c44:	00078513          	mv	a0,a5
    80201c48:	e3dff0ef          	jal	ra,80201a84 <list_add_tail>
    80201c4c:	84018793          	addi	a5,gp,-1984 # 802068f0 <current_running>
    80201c50:	0007b783          	ld	a5,0(a5)
    80201c54:	0507a783          	lw	a5,80(a5)
    80201c58:	00078713          	mv	a4,a5
    80201c5c:	00200793          	li	a5,2
    80201c60:	02f70a63          	beq	a4,a5,80201c94 <do_scheduler+0x11c>
    80201c64:	84018793          	addi	a5,gp,-1984 # 802068f0 <current_running>
    80201c68:	0007b783          	ld	a5,0(a5)
    80201c6c:	0507a783          	lw	a5,80(a5)
    80201c70:	00078713          	mv	a4,a5
    80201c74:	00100793          	li	a5,1
    80201c78:	00f70e63          	beq	a4,a5,80201c94 <do_scheduler+0x11c>
    80201c7c:	00004617          	auipc	a2,0x4
    80201c80:	63c60613          	addi	a2,a2,1596 # 802062b8 <__FUNCTION__.2>
    80201c84:	03200593          	li	a1,50
    80201c88:	00004517          	auipc	a0,0x4
    80201c8c:	60050513          	addi	a0,a0,1536 # 80206288 <__RODATA_BEGIN__+0x350>
    80201c90:	ea5ff0ef          	jal	ra,80201b34 <_panic>
    80201c94:	84018793          	addi	a5,gp,-1984 # 802068f0 <current_running>
    80201c98:	0007b783          	ld	a5,0(a5)
    80201c9c:	00100713          	li	a4,1
    80201ca0:	04e7a823          	sw	a4,80(a5)
    80201ca4:	84018793          	addi	a5,gp,-1984 # 802068f0 <current_running>
    80201ca8:	0007b783          	ld	a5,0(a5)
    80201cac:	02878793          	addi	a5,a5,40
    80201cb0:	00078513          	mv	a0,a5
    80201cb4:	d65ff0ef          	jal	ra,80201a18 <list_del>
    80201cb8:	84018793          	addi	a5,gp,-1984 # 802068f0 <current_running>
    80201cbc:	0007b783          	ld	a5,0(a5)
    80201cc0:	0587a703          	lw	a4,88(a5)
    80201cc4:	00006797          	auipc	a5,0x6
    80201cc8:	d2478793          	addi	a5,a5,-732 # 802079e8 <screen_cursor_x>
    80201ccc:	00e7a023          	sw	a4,0(a5)
    80201cd0:	84018793          	addi	a5,gp,-1984 # 802068f0 <current_running>
    80201cd4:	0007b783          	ld	a5,0(a5)
    80201cd8:	05c7a703          	lw	a4,92(a5)
    80201cdc:	00006797          	auipc	a5,0x6
    80201ce0:	d1078793          	addi	a5,a5,-752 # 802079ec <screen_cursor_y>
    80201ce4:	00e7a023          	sw	a4,0(a5)
    80201ce8:	84018793          	addi	a5,gp,-1984 # 802068f0 <current_running>
    80201cec:	0007b783          	ld	a5,0(a5)
    80201cf0:	00078593          	mv	a1,a5
    80201cf4:	fe843503          	ld	a0,-24(s0)
    80201cf8:	be0fe0ef          	jal	ra,802000d8 <switch_to>
    80201cfc:	0080006f          	j	80201d04 <do_scheduler+0x18c>
    80201d00:	00000013          	nop
    80201d04:	01813083          	ld	ra,24(sp)
    80201d08:	01013403          	ld	s0,16(sp)
    80201d0c:	02010113          	addi	sp,sp,32
    80201d10:	00008067          	ret

0000000080201d14 <do_sleep>:
    80201d14:	fd010113          	addi	sp,sp,-48
    80201d18:	02113423          	sd	ra,40(sp)
    80201d1c:	02813023          	sd	s0,32(sp)
    80201d20:	00913c23          	sd	s1,24(sp)
    80201d24:	03010413          	addi	s0,sp,48
    80201d28:	00050793          	mv	a5,a0
    80201d2c:	fcf42e23          	sw	a5,-36(s0)
    80201d30:	84018793          	addi	a5,gp,-1984 # 802068f0 <current_running>
    80201d34:	0007b783          	ld	a5,0(a5)
    80201d38:	0407a823          	sw	zero,80(a5)
    80201d3c:	84018793          	addi	a5,gp,-1984 # 802068f0 <current_running>
    80201d40:	0007b783          	ld	a5,0(a5)
    80201d44:	0207b423          	sd	zero,40(a5)
    80201d48:	84018793          	addi	a5,gp,-1984 # 802068f0 <current_running>
    80201d4c:	0007b783          	ld	a5,0(a5)
    80201d50:	0207b823          	sd	zero,48(a5)
    80201d54:	84018793          	addi	a5,gp,-1984 # 802068f0 <current_running>
    80201d58:	0007b783          	ld	a5,0(a5)
    80201d5c:	02878493          	addi	s1,a5,40
    80201d60:	305000ef          	jal	ra,80202864 <get_ticks>
    80201d64:	00050693          	mv	a3,a0
    80201d68:	85018793          	addi	a5,gp,-1968 # 80206900 <time_base>
    80201d6c:	0007a783          	lw	a5,0(a5)
    80201d70:	fdc42703          	lw	a4,-36(s0)
    80201d74:	02f707bb          	mulw	a5,a4,a5
    80201d78:	0007879b          	sext.w	a5,a5
    80201d7c:	02079793          	slli	a5,a5,0x20
    80201d80:	0207d793          	srli	a5,a5,0x20
    80201d84:	00f687b3          	add	a5,a3,a5
    80201d88:	00078613          	mv	a2,a5
    80201d8c:	00048593          	mv	a1,s1
    80201d90:	00000517          	auipc	a0,0x0
    80201d94:	0cc50513          	addi	a0,a0,204 # 80201e5c <do_unblock>
    80201d98:	129000ef          	jal	ra,802026c0 <timer_create>
    80201d9c:	dddff0ef          	jal	ra,80201b78 <do_scheduler>
    80201da0:	00000013          	nop
    80201da4:	02813083          	ld	ra,40(sp)
    80201da8:	02013403          	ld	s0,32(sp)
    80201dac:	01813483          	ld	s1,24(sp)
    80201db0:	03010113          	addi	sp,sp,48
    80201db4:	00008067          	ret

0000000080201db8 <do_block>:
    80201db8:	fd010113          	addi	sp,sp,-48
    80201dbc:	02113423          	sd	ra,40(sp)
    80201dc0:	02813023          	sd	s0,32(sp)
    80201dc4:	03010413          	addi	s0,sp,48
    80201dc8:	fca43c23          	sd	a0,-40(s0)
    80201dcc:	fcb43823          	sd	a1,-48(s0)
    80201dd0:	fd843783          	ld	a5,-40(s0)
    80201dd4:	fef43423          	sd	a5,-24(s0)
    80201dd8:	fe843783          	ld	a5,-24(s0)
    80201ddc:	fd878793          	addi	a5,a5,-40
    80201de0:	fef43023          	sd	a5,-32(s0)
    80201de4:	fe043783          	ld	a5,-32(s0)
    80201de8:	0507a783          	lw	a5,80(a5)
    80201dec:	00078713          	mv	a4,a5
    80201df0:	00200793          	li	a5,2
    80201df4:	00f70c63          	beq	a4,a5,80201e0c <do_block+0x54>
    80201df8:	fe043783          	ld	a5,-32(s0)
    80201dfc:	0507a783          	lw	a5,80(a5)
    80201e00:	00078713          	mv	a4,a5
    80201e04:	00100793          	li	a5,1
    80201e08:	02f71263          	bne	a4,a5,80201e2c <do_block+0x74>
    80201e0c:	fe043783          	ld	a5,-32(s0)
    80201e10:	0407a823          	sw	zero,80(a5)
    80201e14:	fd843503          	ld	a0,-40(s0)
    80201e18:	c01ff0ef          	jal	ra,80201a18 <list_del>
    80201e1c:	fd043583          	ld	a1,-48(s0)
    80201e20:	fd843503          	ld	a0,-40(s0)
    80201e24:	c61ff0ef          	jal	ra,80201a84 <list_add_tail>
    80201e28:	0200006f          	j	80201e48 <do_block+0x90>
    80201e2c:	00004617          	auipc	a2,0x4
    80201e30:	49c60613          	addi	a2,a2,1180 # 802062c8 <__FUNCTION__.1>
    80201e34:	05400593          	li	a1,84
    80201e38:	00004517          	auipc	a0,0x4
    80201e3c:	45050513          	addi	a0,a0,1104 # 80206288 <__RODATA_BEGIN__+0x350>
    80201e40:	cf5ff0ef          	jal	ra,80201b34 <_panic>
    80201e44:	00000013          	nop
    80201e48:	00000013          	nop
    80201e4c:	02813083          	ld	ra,40(sp)
    80201e50:	02013403          	ld	s0,32(sp)
    80201e54:	03010113          	addi	sp,sp,48
    80201e58:	00008067          	ret

0000000080201e5c <do_unblock>:
    80201e5c:	fd010113          	addi	sp,sp,-48
    80201e60:	02113423          	sd	ra,40(sp)
    80201e64:	02813023          	sd	s0,32(sp)
    80201e68:	03010413          	addi	s0,sp,48
    80201e6c:	fca43c23          	sd	a0,-40(s0)
    80201e70:	fd843783          	ld	a5,-40(s0)
    80201e74:	fef43423          	sd	a5,-24(s0)
    80201e78:	fe843783          	ld	a5,-24(s0)
    80201e7c:	fd878793          	addi	a5,a5,-40
    80201e80:	fef43023          	sd	a5,-32(s0)
    80201e84:	fe043783          	ld	a5,-32(s0)
    80201e88:	0507a783          	lw	a5,80(a5)
    80201e8c:	02079663          	bnez	a5,80201eb8 <do_unblock+0x5c>
    80201e90:	fe043783          	ld	a5,-32(s0)
    80201e94:	00200713          	li	a4,2
    80201e98:	04e7a823          	sw	a4,80(a5)
    80201e9c:	fd843503          	ld	a0,-40(s0)
    80201ea0:	b79ff0ef          	jal	ra,80201a18 <list_del>
    80201ea4:	00005597          	auipc	a1,0x5
    80201ea8:	8fc58593          	addi	a1,a1,-1796 # 802067a0 <ready_queue>
    80201eac:	fd843503          	ld	a0,-40(s0)
    80201eb0:	bd5ff0ef          	jal	ra,80201a84 <list_add_tail>
    80201eb4:	0400006f          	j	80201ef4 <do_unblock+0x98>
    80201eb8:	fe043783          	ld	a5,-32(s0)
    80201ebc:	0487a703          	lw	a4,72(a5)
    80201ec0:	fe043783          	ld	a5,-32(s0)
    80201ec4:	0507a783          	lw	a5,80(a5)
    80201ec8:	00078613          	mv	a2,a5
    80201ecc:	00070593          	mv	a1,a4
    80201ed0:	00004517          	auipc	a0,0x4
    80201ed4:	3d050513          	addi	a0,a0,976 # 802062a0 <__RODATA_BEGIN__+0x368>
    80201ed8:	eb8ff0ef          	jal	ra,80201590 <printk>
    80201edc:	00004617          	auipc	a2,0x4
    80201ee0:	3fc60613          	addi	a2,a2,1020 # 802062d8 <__FUNCTION__.0>
    80201ee4:	06200593          	li	a1,98
    80201ee8:	00004517          	auipc	a0,0x4
    80201eec:	3a050513          	addi	a0,a0,928 # 80206288 <__RODATA_BEGIN__+0x350>
    80201ef0:	c45ff0ef          	jal	ra,80201b34 <_panic>
    80201ef4:	00000013          	nop
    80201ef8:	02813083          	ld	ra,40(sp)
    80201efc:	02013403          	ld	s0,32(sp)
    80201f00:	03010113          	addi	sp,sp,48
    80201f04:	00008067          	ret

0000000080201f08 <init_pcb_stack>:
    80201f08:	fa010113          	addi	sp,sp,-96
    80201f0c:	04813c23          	sd	s0,88(sp)
    80201f10:	06010413          	addi	s0,sp,96
    80201f14:	fca43423          	sd	a0,-56(s0)
    80201f18:	fcb43023          	sd	a1,-64(s0)
    80201f1c:	fac43c23          	sd	a2,-72(s0)
    80201f20:	fad43823          	sd	a3,-80(s0)
    80201f24:	fae43423          	sd	a4,-88(s0)
    80201f28:	fc843783          	ld	a5,-56(s0)
    80201f2c:	d1878793          	addi	a5,a5,-744
    80201f30:	fef43023          	sd	a5,-32(s0)
    80201f34:	fe042623          	sw	zero,-20(s0)
    80201f38:	0240006f          	j	80201f5c <init_pcb_stack+0x54>
    80201f3c:	fe043703          	ld	a4,-32(s0)
    80201f40:	fec42783          	lw	a5,-20(s0)
    80201f44:	00379793          	slli	a5,a5,0x3
    80201f48:	00f707b3          	add	a5,a4,a5
    80201f4c:	0007b023          	sd	zero,0(a5)
    80201f50:	fec42783          	lw	a5,-20(s0)
    80201f54:	0017879b          	addiw	a5,a5,1
    80201f58:	fef42623          	sw	a5,-20(s0)
    80201f5c:	fec42783          	lw	a5,-20(s0)
    80201f60:	0007871b          	sext.w	a4,a5
    80201f64:	01f00793          	li	a5,31
    80201f68:	fce7dae3          	bge	a5,a4,80201f3c <init_pcb_stack+0x34>
    80201f6c:	fe043783          	ld	a5,-32(s0)
    80201f70:	fc043703          	ld	a4,-64(s0)
    80201f74:	00e7b823          	sd	a4,16(a5)
    80201f78:	00018713          	mv	a4,gp
    80201f7c:	fe043783          	ld	a5,-32(s0)
    80201f80:	00e7bc23          	sd	a4,24(a5)
    80201f84:	fa843703          	ld	a4,-88(s0)
    80201f88:	fe043783          	ld	a5,-32(s0)
    80201f8c:	04e7b823          	sd	a4,80(a5)
    80201f90:	fe043783          	ld	a5,-32(s0)
    80201f94:	fb843703          	ld	a4,-72(s0)
    80201f98:	10e7b423          	sd	a4,264(a5)
    80201f9c:	fe043783          	ld	a5,-32(s0)
    80201fa0:	1007b023          	sd	zero,256(a5)
    80201fa4:	fb043783          	ld	a5,-80(s0)
    80201fa8:	04c7a783          	lw	a5,76(a5)
    80201fac:	00078c63          	beqz	a5,80201fc4 <init_pcb_stack+0xbc>
    80201fb0:	fb043783          	ld	a5,-80(s0)
    80201fb4:	04c7a783          	lw	a5,76(a5)
    80201fb8:	00078713          	mv	a4,a5
    80201fbc:	00100793          	li	a5,1
    80201fc0:	00f71e63          	bne	a4,a5,80201fdc <init_pcb_stack+0xd4>
    80201fc4:	fe043783          	ld	a5,-32(s0)
    80201fc8:	1007b783          	ld	a5,256(a5)
    80201fcc:	1207e713          	ori	a4,a5,288
    80201fd0:	fe043783          	ld	a5,-32(s0)
    80201fd4:	10e7b023          	sd	a4,256(a5)
    80201fd8:	0180006f          	j	80201ff0 <init_pcb_stack+0xe8>
    80201fdc:	fe043783          	ld	a5,-32(s0)
    80201fe0:	1007b783          	ld	a5,256(a5)
    80201fe4:	0207e713          	ori	a4,a5,32
    80201fe8:	fe043783          	ld	a5,-32(s0)
    80201fec:	10e7b023          	sd	a4,256(a5)
    80201ff0:	fe043783          	ld	a5,-32(s0)
    80201ff4:	00200713          	li	a4,2
    80201ff8:	16e7b023          	sd	a4,352(a5)
    80201ffc:	ffffe717          	auipc	a4,0xffffe
    80202000:	00470713          	addi	a4,a4,4 # 80200000 <_start>
    80202004:	fe043783          	ld	a5,-32(s0)
    80202008:	16e7b423          	sd	a4,360(a5)
    8020200c:	00003717          	auipc	a4,0x3
    80202010:	c0470713          	addi	a4,a4,-1020 # 80204c10 <__UMAIN_TEXT_END__>
    80202014:	fe043783          	ld	a5,-32(s0)
    80202018:	16e7b823          	sd	a4,368(a5)
    8020201c:	fc843703          	ld	a4,-56(s0)
    80202020:	fffff7b7          	lui	a5,0xfffff
    80202024:	00f70733          	add	a4,a4,a5
    80202028:	fe043783          	ld	a5,-32(s0)
    8020202c:	18e7b423          	sd	a4,392(a5) # fffffffffffff188 <_end+0xffffffff7fdf54d8>
    80202030:	fc043783          	ld	a5,-64(s0)
    80202034:	00878713          	addi	a4,a5,8
    80202038:	fe043783          	ld	a5,-32(s0)
    8020203c:	18e7b823          	sd	a4,400(a5)
    80202040:	00004717          	auipc	a4,0x4
    80202044:	ef870713          	addi	a4,a4,-264 # 80205f38 <__RODATA_BEGIN__>
    80202048:	fe043783          	ld	a5,-32(s0)
    8020204c:	18e7bc23          	sd	a4,408(a5)
    80202050:	00004797          	auipc	a5,0x4
    80202054:	6cc78793          	addi	a5,a5,1740 # 8020671c <__RODATA_END__>
    80202058:	ff87f793          	andi	a5,a5,-8
    8020205c:	00878713          	addi	a4,a5,8
    80202060:	fe043783          	ld	a5,-32(s0)
    80202064:	1ae7b023          	sd	a4,416(a5)
    80202068:	fe043783          	ld	a5,-32(s0)
    8020206c:	0ab00713          	li	a4,171
    80202070:	16e7bc23          	sd	a4,376(a5)
    80202074:	00003717          	auipc	a4,0x3
    80202078:	61070713          	addi	a4,a4,1552 # 80205684 <mini_itoa>
    8020207c:	fe043783          	ld	a5,-32(s0)
    80202080:	2ae7b023          	sd	a4,672(a5)
    80202084:	00004717          	auipc	a4,0x4
    80202088:	eb470713          	addi	a4,a4,-332 # 80205f38 <__RODATA_BEGIN__>
    8020208c:	fe043783          	ld	a5,-32(s0)
    80202090:	2ae7b423          	sd	a4,680(a5)
    80202094:	fe043783          	ld	a5,-32(s0)
    80202098:	00100713          	li	a4,1
    8020209c:	2ee7b023          	sd	a4,736(a5)
    802020a0:	fc843783          	ld	a5,-56(s0)
    802020a4:	ca878793          	addi	a5,a5,-856
    802020a8:	fcf43c23          	sd	a5,-40(s0)
    802020ac:	fb043783          	ld	a5,-80(s0)
    802020b0:	fd843703          	ld	a4,-40(s0)
    802020b4:	00e7b023          	sd	a4,0(a5)
    802020b8:	fd843783          	ld	a5,-40(s0)
    802020bc:	fcf43823          	sd	a5,-48(s0)
    802020c0:	fe042423          	sw	zero,-24(s0)
    802020c4:	0240006f          	j	802020e8 <init_pcb_stack+0x1e0>
    802020c8:	fd043703          	ld	a4,-48(s0)
    802020cc:	fe842783          	lw	a5,-24(s0)
    802020d0:	00379793          	slli	a5,a5,0x3
    802020d4:	00f707b3          	add	a5,a4,a5
    802020d8:	0007b023          	sd	zero,0(a5)
    802020dc:	fe842783          	lw	a5,-24(s0)
    802020e0:	0017879b          	addiw	a5,a5,1
    802020e4:	fef42423          	sw	a5,-24(s0)
    802020e8:	fe842783          	lw	a5,-24(s0)
    802020ec:	0007871b          	sext.w	a4,a5
    802020f0:	00d00793          	li	a5,13
    802020f4:	fce7dae3          	bge	a5,a4,802020c8 <init_pcb_stack+0x1c0>
    802020f8:	ffffe717          	auipc	a4,0xffffe
    802020fc:	06870713          	addi	a4,a4,104 # 80200160 <ret_from_exception>
    80202100:	fd043783          	ld	a5,-48(s0)
    80202104:	00e7b023          	sd	a4,0(a5)
    80202108:	fd043783          	ld	a5,-48(s0)
    8020210c:	fd843703          	ld	a4,-40(s0)
    80202110:	00e7b423          	sd	a4,8(a5)
    80202114:	00000013          	nop
    80202118:	05813403          	ld	s0,88(sp)
    8020211c:	06010113          	addi	sp,sp,96
    80202120:	00008067          	ret

0000000080202124 <set_pcb>:
    80202124:	fd010113          	addi	sp,sp,-48
    80202128:	02113423          	sd	ra,40(sp)
    8020212c:	02813023          	sd	s0,32(sp)
    80202130:	03010413          	addi	s0,sp,48
    80202134:	00050793          	mv	a5,a0
    80202138:	feb43023          	sd	a1,-32(s0)
    8020213c:	fcc43c23          	sd	a2,-40(s0)
    80202140:	fcd43823          	sd	a3,-48(s0)
    80202144:	fef42623          	sw	a5,-20(s0)
    80202148:	fe043783          	ld	a5,-32(s0)
    8020214c:	fec42703          	lw	a4,-20(s0)
    80202150:	04e7a423          	sw	a4,72(a5)
    80202154:	fd843783          	ld	a5,-40(s0)
    80202158:	0087a703          	lw	a4,8(a5)
    8020215c:	fe043783          	ld	a5,-32(s0)
    80202160:	04e7a623          	sw	a4,76(a5)
    80202164:	fe043783          	ld	a5,-32(s0)
    80202168:	00200713          	li	a4,2
    8020216c:	04e7a823          	sw	a4,80(a5)
    80202170:	00100513          	li	a0,1
    80202174:	e7cff0ef          	jal	ra,802017f0 <allocPage>
    80202178:	00050713          	mv	a4,a0
    8020217c:	fe043783          	ld	a5,-32(s0)
    80202180:	00e7bc23          	sd	a4,24(a5)
    80202184:	00100513          	li	a0,1
    80202188:	e68ff0ef          	jal	ra,802017f0 <allocPage>
    8020218c:	00050713          	mv	a4,a0
    80202190:	fe043783          	ld	a5,-32(s0)
    80202194:	02e7b023          	sd	a4,32(a5)
    80202198:	fe043783          	ld	a5,-32(s0)
    8020219c:	0187b703          	ld	a4,24(a5)
    802021a0:	000017b7          	lui	a5,0x1
    802021a4:	00f70733          	add	a4,a4,a5
    802021a8:	fe043783          	ld	a5,-32(s0)
    802021ac:	00e7b023          	sd	a4,0(a5) # 1000 <_start-0x801ff000>
    802021b0:	fe043783          	ld	a5,-32(s0)
    802021b4:	0207b703          	ld	a4,32(a5)
    802021b8:	000017b7          	lui	a5,0x1
    802021bc:	00f70733          	add	a4,a4,a5
    802021c0:	fe043783          	ld	a5,-32(s0)
    802021c4:	00e7b423          	sd	a4,8(a5) # 1008 <_start-0x801feff8>
    802021c8:	fe043783          	ld	a5,-32(s0)
    802021cc:	0007b823          	sd	zero,16(a5)
    802021d0:	fe043783          	ld	a5,-32(s0)
    802021d4:	0007b503          	ld	a0,0(a5)
    802021d8:	fe043783          	ld	a5,-32(s0)
    802021dc:	0087b583          	ld	a1,8(a5)
    802021e0:	fd843783          	ld	a5,-40(s0)
    802021e4:	0007b783          	ld	a5,0(a5)
    802021e8:	fd043703          	ld	a4,-48(s0)
    802021ec:	fe043683          	ld	a3,-32(s0)
    802021f0:	00078613          	mv	a2,a5
    802021f4:	d15ff0ef          	jal	ra,80201f08 <init_pcb_stack>
    802021f8:	fe043783          	ld	a5,-32(s0)
    802021fc:	00100713          	li	a4,1
    80202200:	04e7ac23          	sw	a4,88(a5)
    80202204:	fe043783          	ld	a5,-32(s0)
    80202208:	00100713          	li	a4,1
    8020220c:	04e7ae23          	sw	a4,92(a5)
    80202210:	fe043783          	ld	a5,-32(s0)
    80202214:	03878793          	addi	a5,a5,56
    80202218:	00078513          	mv	a0,a5
    8020221c:	f30ff0ef          	jal	ra,8020194c <init_list_head>
    80202220:	fe043783          	ld	a5,-32(s0)
    80202224:	02878793          	addi	a5,a5,40
    80202228:	00004597          	auipc	a1,0x4
    8020222c:	57858593          	addi	a1,a1,1400 # 802067a0 <ready_queue>
    80202230:	00078513          	mv	a0,a5
    80202234:	851ff0ef          	jal	ra,80201a84 <list_add_tail>
    80202238:	00000013          	nop
    8020223c:	02813083          	ld	ra,40(sp)
    80202240:	02013403          	ld	s0,32(sp)
    80202244:	03010113          	addi	sp,sp,48
    80202248:	00008067          	ret

000000008020224c <clean_up_pcb>:
    8020224c:	fd010113          	addi	sp,sp,-48
    80202250:	02113423          	sd	ra,40(sp)
    80202254:	02813023          	sd	s0,32(sp)
    80202258:	03010413          	addi	s0,sp,48
    8020225c:	fca43c23          	sd	a0,-40(s0)
    80202260:	fd843783          	ld	a5,-40(s0)
    80202264:	02878793          	addi	a5,a5,40
    80202268:	00078513          	mv	a0,a5
    8020226c:	facff0ef          	jal	ra,80201a18 <list_del>
    80202270:	fd843783          	ld	a5,-40(s0)
    80202274:	0187b783          	ld	a5,24(a5)
    80202278:	00100593          	li	a1,1
    8020227c:	00078513          	mv	a0,a5
    80202280:	dfcff0ef          	jal	ra,8020187c <freePage>
    80202284:	fd843783          	ld	a5,-40(s0)
    80202288:	0207b783          	ld	a5,32(a5)
    8020228c:	00100593          	li	a1,1
    80202290:	00078513          	mv	a0,a5
    80202294:	de8ff0ef          	jal	ra,8020187c <freePage>
    80202298:	fd843783          	ld	a5,-40(s0)
    8020229c:	0547a783          	lw	a5,84(a5)
    802022a0:	00078713          	mv	a4,a5
    802022a4:	00100793          	li	a5,1
    802022a8:	00f71a63          	bne	a4,a5,802022bc <clean_up_pcb+0x70>
    802022ac:	fd843783          	ld	a5,-40(s0)
    802022b0:	00400713          	li	a4,4
    802022b4:	04e7a823          	sw	a4,80(a5)
    802022b8:	0340006f          	j	802022ec <clean_up_pcb+0xa0>
    802022bc:	fd843783          	ld	a5,-40(s0)
    802022c0:	00300713          	li	a4,3
    802022c4:	04e7a823          	sw	a4,80(a5)
    802022c8:	0240006f          	j	802022ec <clean_up_pcb+0xa0>
    802022cc:	fd843783          	ld	a5,-40(s0)
    802022d0:	0387b783          	ld	a5,56(a5)
    802022d4:	fef43423          	sd	a5,-24(s0)
    802022d8:	fe843503          	ld	a0,-24(s0)
    802022dc:	b81ff0ef          	jal	ra,80201e5c <do_unblock>
    802022e0:	fd843783          	ld	a5,-40(s0)
    802022e4:	00400713          	li	a4,4
    802022e8:	04e7a823          	sw	a4,80(a5)
    802022ec:	fd843783          	ld	a5,-40(s0)
    802022f0:	03878793          	addi	a5,a5,56
    802022f4:	00078513          	mv	a0,a5
    802022f8:	fd0ff0ef          	jal	ra,80201ac8 <list_empty>
    802022fc:	00050793          	mv	a5,a0
    80202300:	fc0786e3          	beqz	a5,802022cc <clean_up_pcb+0x80>
    80202304:	00000013          	nop
    80202308:	00000013          	nop
    8020230c:	02813083          	ld	ra,40(sp)
    80202310:	02013403          	ld	s0,32(sp)
    80202314:	03010113          	addi	sp,sp,48
    80202318:	00008067          	ret

000000008020231c <do_exit>:
    8020231c:	ff010113          	addi	sp,sp,-16
    80202320:	00113423          	sd	ra,8(sp)
    80202324:	00813023          	sd	s0,0(sp)
    80202328:	01010413          	addi	s0,sp,16
    8020232c:	84018793          	addi	a5,gp,-1984 # 802068f0 <current_running>
    80202330:	0007b783          	ld	a5,0(a5)
    80202334:	00078513          	mv	a0,a5
    80202338:	f15ff0ef          	jal	ra,8020224c <clean_up_pcb>
    8020233c:	83dff0ef          	jal	ra,80201b78 <do_scheduler>
    80202340:	00000013          	nop
    80202344:	00813083          	ld	ra,8(sp)
    80202348:	00013403          	ld	s0,0(sp)
    8020234c:	01010113          	addi	sp,sp,16
    80202350:	00008067          	ret

0000000080202354 <do_spawn>:
    80202354:	fc010113          	addi	sp,sp,-64
    80202358:	02113c23          	sd	ra,56(sp)
    8020235c:	02813823          	sd	s0,48(sp)
    80202360:	04010413          	addi	s0,sp,64
    80202364:	fca43c23          	sd	a0,-40(s0)
    80202368:	fcb43823          	sd	a1,-48(s0)
    8020236c:	00060793          	mv	a5,a2
    80202370:	fcf42623          	sw	a5,-52(s0)
    80202374:	fff00793          	li	a5,-1
    80202378:	fef42423          	sw	a5,-24(s0)
    8020237c:	fe042623          	sw	zero,-20(s0)
    80202380:	0c00006f          	j	80202440 <do_spawn+0xec>
    80202384:	00004697          	auipc	a3,0x4
    80202388:	58c68693          	addi	a3,a3,1420 # 80206910 <pcb>
    8020238c:	fec42703          	lw	a4,-20(s0)
    80202390:	00070793          	mv	a5,a4
    80202394:	00179793          	slli	a5,a5,0x1
    80202398:	00e787b3          	add	a5,a5,a4
    8020239c:	00579793          	slli	a5,a5,0x5
    802023a0:	00f687b3          	add	a5,a3,a5
    802023a4:	0507a783          	lw	a5,80(a5)
    802023a8:	00078713          	mv	a4,a5
    802023ac:	00400793          	li	a5,4
    802023b0:	08f71263          	bne	a4,a5,80202434 <do_spawn+0xe0>
    802023b4:	83018793          	addi	a5,gp,-2000 # 802068e0 <process_id>
    802023b8:	0007a783          	lw	a5,0(a5)
    802023bc:	0017871b          	addiw	a4,a5,1
    802023c0:	0007069b          	sext.w	a3,a4
    802023c4:	83018713          	addi	a4,gp,-2000 # 802068e0 <process_id>
    802023c8:	00d72023          	sw	a3,0(a4)
    802023cc:	fef42423          	sw	a5,-24(s0)
    802023d0:	fec42703          	lw	a4,-20(s0)
    802023d4:	00070793          	mv	a5,a4
    802023d8:	00179793          	slli	a5,a5,0x1
    802023dc:	00e787b3          	add	a5,a5,a4
    802023e0:	00579793          	slli	a5,a5,0x5
    802023e4:	00004717          	auipc	a4,0x4
    802023e8:	52c70713          	addi	a4,a4,1324 # 80206910 <pcb>
    802023ec:	00e78733          	add	a4,a5,a4
    802023f0:	fe842783          	lw	a5,-24(s0)
    802023f4:	fd043683          	ld	a3,-48(s0)
    802023f8:	fd843603          	ld	a2,-40(s0)
    802023fc:	00070593          	mv	a1,a4
    80202400:	00078513          	mv	a0,a5
    80202404:	d21ff0ef          	jal	ra,80202124 <set_pcb>
    80202408:	00004697          	auipc	a3,0x4
    8020240c:	50868693          	addi	a3,a3,1288 # 80206910 <pcb>
    80202410:	fec42703          	lw	a4,-20(s0)
    80202414:	00070793          	mv	a5,a4
    80202418:	00179793          	slli	a5,a5,0x1
    8020241c:	00e787b3          	add	a5,a5,a4
    80202420:	00579793          	slli	a5,a5,0x5
    80202424:	00f687b3          	add	a5,a3,a5
    80202428:	fcc42703          	lw	a4,-52(s0)
    8020242c:	04e7aa23          	sw	a4,84(a5)
    80202430:	0200006f          	j	80202450 <do_spawn+0xfc>
    80202434:	fec42783          	lw	a5,-20(s0)
    80202438:	0017879b          	addiw	a5,a5,1
    8020243c:	fef42623          	sw	a5,-20(s0)
    80202440:	fec42783          	lw	a5,-20(s0)
    80202444:	0007871b          	sext.w	a4,a5
    80202448:	00f00793          	li	a5,15
    8020244c:	f2e7dce3          	bge	a5,a4,80202384 <do_spawn+0x30>
    80202450:	fe842783          	lw	a5,-24(s0)
    80202454:	00078513          	mv	a0,a5
    80202458:	03813083          	ld	ra,56(sp)
    8020245c:	03013403          	ld	s0,48(sp)
    80202460:	04010113          	addi	sp,sp,64
    80202464:	00008067          	ret

0000000080202468 <_list_add>:
    80202468:	fd010113          	addi	sp,sp,-48
    8020246c:	02813423          	sd	s0,40(sp)
    80202470:	03010413          	addi	s0,sp,48
    80202474:	fea43423          	sd	a0,-24(s0)
    80202478:	feb43023          	sd	a1,-32(s0)
    8020247c:	fcc43c23          	sd	a2,-40(s0)
    80202480:	fd843783          	ld	a5,-40(s0)
    80202484:	fe843703          	ld	a4,-24(s0)
    80202488:	00e7b423          	sd	a4,8(a5)
    8020248c:	fe843783          	ld	a5,-24(s0)
    80202490:	fd843703          	ld	a4,-40(s0)
    80202494:	00e7b023          	sd	a4,0(a5)
    80202498:	fe843783          	ld	a5,-24(s0)
    8020249c:	fe043703          	ld	a4,-32(s0)
    802024a0:	00e7b423          	sd	a4,8(a5)
    802024a4:	fe043783          	ld	a5,-32(s0)
    802024a8:	fe843703          	ld	a4,-24(s0)
    802024ac:	00e7b023          	sd	a4,0(a5)
    802024b0:	00000013          	nop
    802024b4:	02813403          	ld	s0,40(sp)
    802024b8:	03010113          	addi	sp,sp,48
    802024bc:	00008067          	ret

00000000802024c0 <_list_del>:
    802024c0:	fe010113          	addi	sp,sp,-32
    802024c4:	00813c23          	sd	s0,24(sp)
    802024c8:	02010413          	addi	s0,sp,32
    802024cc:	fea43423          	sd	a0,-24(s0)
    802024d0:	feb43023          	sd	a1,-32(s0)
    802024d4:	fe043783          	ld	a5,-32(s0)
    802024d8:	fe843703          	ld	a4,-24(s0)
    802024dc:	00e7b423          	sd	a4,8(a5)
    802024e0:	fe843783          	ld	a5,-24(s0)
    802024e4:	fe043703          	ld	a4,-32(s0)
    802024e8:	00e7b023          	sd	a4,0(a5)
    802024ec:	00000013          	nop
    802024f0:	01813403          	ld	s0,24(sp)
    802024f4:	02010113          	addi	sp,sp,32
    802024f8:	00008067          	ret

00000000802024fc <list_del>:
    802024fc:	fe010113          	addi	sp,sp,-32
    80202500:	00113c23          	sd	ra,24(sp)
    80202504:	00813823          	sd	s0,16(sp)
    80202508:	02010413          	addi	s0,sp,32
    8020250c:	fea43423          	sd	a0,-24(s0)
    80202510:	fe843783          	ld	a5,-24(s0)
    80202514:	0087b783          	ld	a5,8(a5)
    80202518:	02078e63          	beqz	a5,80202554 <list_del+0x58>
    8020251c:	fe843783          	ld	a5,-24(s0)
    80202520:	0007b783          	ld	a5,0(a5)
    80202524:	02078863          	beqz	a5,80202554 <list_del+0x58>
    80202528:	fe843783          	ld	a5,-24(s0)
    8020252c:	0087b703          	ld	a4,8(a5)
    80202530:	fe843783          	ld	a5,-24(s0)
    80202534:	0007b783          	ld	a5,0(a5)
    80202538:	00078593          	mv	a1,a5
    8020253c:	00070513          	mv	a0,a4
    80202540:	f81ff0ef          	jal	ra,802024c0 <_list_del>
    80202544:	fe843783          	ld	a5,-24(s0)
    80202548:	0007b423          	sd	zero,8(a5)
    8020254c:	fe843783          	ld	a5,-24(s0)
    80202550:	0007b023          	sd	zero,0(a5)
    80202554:	00000013          	nop
    80202558:	01813083          	ld	ra,24(sp)
    8020255c:	01013403          	ld	s0,16(sp)
    80202560:	02010113          	addi	sp,sp,32
    80202564:	00008067          	ret

0000000080202568 <list_add_tail>:
    80202568:	fe010113          	addi	sp,sp,-32
    8020256c:	00113c23          	sd	ra,24(sp)
    80202570:	00813823          	sd	s0,16(sp)
    80202574:	02010413          	addi	s0,sp,32
    80202578:	fea43423          	sd	a0,-24(s0)
    8020257c:	feb43023          	sd	a1,-32(s0)
    80202580:	fe043783          	ld	a5,-32(s0)
    80202584:	0087b783          	ld	a5,8(a5)
    80202588:	fe043603          	ld	a2,-32(s0)
    8020258c:	00078593          	mv	a1,a5
    80202590:	fe843503          	ld	a0,-24(s0)
    80202594:	ed5ff0ef          	jal	ra,80202468 <_list_add>
    80202598:	00000013          	nop
    8020259c:	01813083          	ld	ra,24(sp)
    802025a0:	01013403          	ld	s0,16(sp)
    802025a4:	02010113          	addi	sp,sp,32
    802025a8:	00008067          	ret

00000000802025ac <list_empty>:
    802025ac:	fe010113          	addi	sp,sp,-32
    802025b0:	00813c23          	sd	s0,24(sp)
    802025b4:	02010413          	addi	s0,sp,32
    802025b8:	fea43423          	sd	a0,-24(s0)
    802025bc:	fe843783          	ld	a5,-24(s0)
    802025c0:	0007b783          	ld	a5,0(a5)
    802025c4:	fe843703          	ld	a4,-24(s0)
    802025c8:	40f707b3          	sub	a5,a4,a5
    802025cc:	0017b793          	seqz	a5,a5
    802025d0:	0ff7f793          	zext.b	a5,a5
    802025d4:	0007879b          	sext.w	a5,a5
    802025d8:	00078513          	mv	a0,a5
    802025dc:	01813403          	ld	s0,24(sp)
    802025e0:	02010113          	addi	sp,sp,32
    802025e4:	00008067          	ret

00000000802025e8 <alloc_timer>:
    802025e8:	fe010113          	addi	sp,sp,-32
    802025ec:	00113c23          	sd	ra,24(sp)
    802025f0:	00813823          	sd	s0,16(sp)
    802025f4:	02010413          	addi	s0,sp,32
    802025f8:	fe043423          	sd	zero,-24(s0)
    802025fc:	00004517          	auipc	a0,0x4
    80202600:	1c450513          	addi	a0,a0,452 # 802067c0 <free_timers>
    80202604:	fa9ff0ef          	jal	ra,802025ac <list_empty>
    80202608:	00050793          	mv	a5,a0
    8020260c:	02079663          	bnez	a5,80202638 <alloc_timer+0x50>
    80202610:	00004797          	auipc	a5,0x4
    80202614:	1b078793          	addi	a5,a5,432 # 802067c0 <free_timers>
    80202618:	0007b783          	ld	a5,0(a5)
    8020261c:	fef43023          	sd	a5,-32(s0)
    80202620:	fe043783          	ld	a5,-32(s0)
    80202624:	fef43423          	sd	a5,-24(s0)
    80202628:	fe843783          	ld	a5,-24(s0)
    8020262c:	00078513          	mv	a0,a5
    80202630:	ecdff0ef          	jal	ra,802024fc <list_del>
    80202634:	0100006f          	j	80202644 <alloc_timer+0x5c>
    80202638:	02800513          	li	a0,40
    8020263c:	ac4ff0ef          	jal	ra,80201900 <kmalloc>
    80202640:	fea43423          	sd	a0,-24(s0)
    80202644:	fe843783          	ld	a5,-24(s0)
    80202648:	0007b023          	sd	zero,0(a5)
    8020264c:	fe843783          	ld	a5,-24(s0)
    80202650:	0007b423          	sd	zero,8(a5)
    80202654:	fe843783          	ld	a5,-24(s0)
    80202658:	0007b823          	sd	zero,16(a5)
    8020265c:	fe843783          	ld	a5,-24(s0)
    80202660:	0007bc23          	sd	zero,24(a5)
    80202664:	fe843783          	ld	a5,-24(s0)
    80202668:	0207b023          	sd	zero,32(a5)
    8020266c:	fe843783          	ld	a5,-24(s0)
    80202670:	00078513          	mv	a0,a5
    80202674:	01813083          	ld	ra,24(sp)
    80202678:	01013403          	ld	s0,16(sp)
    8020267c:	02010113          	addi	sp,sp,32
    80202680:	00008067          	ret

0000000080202684 <free_timer>:
    80202684:	fe010113          	addi	sp,sp,-32
    80202688:	00113c23          	sd	ra,24(sp)
    8020268c:	00813823          	sd	s0,16(sp)
    80202690:	02010413          	addi	s0,sp,32
    80202694:	fea43423          	sd	a0,-24(s0)
    80202698:	fe843783          	ld	a5,-24(s0)
    8020269c:	00004597          	auipc	a1,0x4
    802026a0:	12458593          	addi	a1,a1,292 # 802067c0 <free_timers>
    802026a4:	00078513          	mv	a0,a5
    802026a8:	ec1ff0ef          	jal	ra,80202568 <list_add_tail>
    802026ac:	00000013          	nop
    802026b0:	01813083          	ld	ra,24(sp)
    802026b4:	01013403          	ld	s0,16(sp)
    802026b8:	02010113          	addi	sp,sp,32
    802026bc:	00008067          	ret

00000000802026c0 <timer_create>:
    802026c0:	fb010113          	addi	sp,sp,-80
    802026c4:	04113423          	sd	ra,72(sp)
    802026c8:	04813023          	sd	s0,64(sp)
    802026cc:	05010413          	addi	s0,sp,80
    802026d0:	fca43423          	sd	a0,-56(s0)
    802026d4:	fcb43023          	sd	a1,-64(s0)
    802026d8:	fac43c23          	sd	a2,-72(s0)
    802026dc:	9cdfd0ef          	jal	ra,802000a8 <disable_preempt>
    802026e0:	f09ff0ef          	jal	ra,802025e8 <alloc_timer>
    802026e4:	fea43023          	sd	a0,-32(s0)
    802026e8:	fe043783          	ld	a5,-32(s0)
    802026ec:	fc843703          	ld	a4,-56(s0)
    802026f0:	00e7bc23          	sd	a4,24(a5)
    802026f4:	fe043783          	ld	a5,-32(s0)
    802026f8:	fc043703          	ld	a4,-64(s0)
    802026fc:	02e7b023          	sd	a4,32(a5)
    80202700:	fe043783          	ld	a5,-32(s0)
    80202704:	fb843703          	ld	a4,-72(s0)
    80202708:	00e7b823          	sd	a4,16(a5)
    8020270c:	00004797          	auipc	a5,0x4
    80202710:	0a478793          	addi	a5,a5,164 # 802067b0 <timers>
    80202714:	0007b783          	ld	a5,0(a5)
    80202718:	fef43423          	sd	a5,-24(s0)
    8020271c:	0340006f          	j	80202750 <timer_create+0x90>
    80202720:	fe843783          	ld	a5,-24(s0)
    80202724:	fcf43c23          	sd	a5,-40(s0)
    80202728:	fd843783          	ld	a5,-40(s0)
    8020272c:	fcf43823          	sd	a5,-48(s0)
    80202730:	fd043783          	ld	a5,-48(s0)
    80202734:	0107b703          	ld	a4,16(a5)
    80202738:	fe043783          	ld	a5,-32(s0)
    8020273c:	0107b783          	ld	a5,16(a5)
    80202740:	02e7e263          	bltu	a5,a4,80202764 <timer_create+0xa4>
    80202744:	fe843783          	ld	a5,-24(s0)
    80202748:	0007b783          	ld	a5,0(a5)
    8020274c:	fef43423          	sd	a5,-24(s0)
    80202750:	fe843703          	ld	a4,-24(s0)
    80202754:	00004797          	auipc	a5,0x4
    80202758:	05c78793          	addi	a5,a5,92 # 802067b0 <timers>
    8020275c:	fcf712e3          	bne	a4,a5,80202720 <timer_create+0x60>
    80202760:	0080006f          	j	80202768 <timer_create+0xa8>
    80202764:	00000013          	nop
    80202768:	fe043783          	ld	a5,-32(s0)
    8020276c:	fe843583          	ld	a1,-24(s0)
    80202770:	00078513          	mv	a0,a5
    80202774:	df5ff0ef          	jal	ra,80202568 <list_add_tail>
    80202778:	909fd0ef          	jal	ra,80200080 <enable_preempt>
    8020277c:	00000013          	nop
    80202780:	04813083          	ld	ra,72(sp)
    80202784:	04013403          	ld	s0,64(sp)
    80202788:	05010113          	addi	sp,sp,80
    8020278c:	00008067          	ret

0000000080202790 <timer_check>:
    80202790:	fd010113          	addi	sp,sp,-48
    80202794:	02113423          	sd	ra,40(sp)
    80202798:	02813023          	sd	s0,32(sp)
    8020279c:	03010413          	addi	s0,sp,48
    802027a0:	909fd0ef          	jal	ra,802000a8 <disable_preempt>
    802027a4:	00004517          	auipc	a0,0x4
    802027a8:	00c50513          	addi	a0,a0,12 # 802067b0 <timers>
    802027ac:	e01ff0ef          	jal	ra,802025ac <list_empty>
    802027b0:	00050793          	mv	a5,a0
    802027b4:	08079c63          	bnez	a5,8020284c <timer_check+0xbc>
    802027b8:	0ac000ef          	jal	ra,80202864 <get_ticks>
    802027bc:	fea43023          	sd	a0,-32(s0)
    802027c0:	00004797          	auipc	a5,0x4
    802027c4:	ff078793          	addi	a5,a5,-16 # 802067b0 <timers>
    802027c8:	0007b783          	ld	a5,0(a5)
    802027cc:	fcf43c23          	sd	a5,-40(s0)
    802027d0:	fd843783          	ld	a5,-40(s0)
    802027d4:	fef43423          	sd	a5,-24(s0)
    802027d8:	05c0006f          	j	80202834 <timer_check+0xa4>
    802027dc:	fe843783          	ld	a5,-24(s0)
    802027e0:	0187b703          	ld	a4,24(a5)
    802027e4:	fe843783          	ld	a5,-24(s0)
    802027e8:	0207b783          	ld	a5,32(a5)
    802027ec:	00078513          	mv	a0,a5
    802027f0:	000700e7          	jalr	a4
    802027f4:	fe843783          	ld	a5,-24(s0)
    802027f8:	00078513          	mv	a0,a5
    802027fc:	d01ff0ef          	jal	ra,802024fc <list_del>
    80202800:	fe843503          	ld	a0,-24(s0)
    80202804:	e81ff0ef          	jal	ra,80202684 <free_timer>
    80202808:	00004517          	auipc	a0,0x4
    8020280c:	fa850513          	addi	a0,a0,-88 # 802067b0 <timers>
    80202810:	d9dff0ef          	jal	ra,802025ac <list_empty>
    80202814:	00050793          	mv	a5,a0
    80202818:	02079863          	bnez	a5,80202848 <timer_check+0xb8>
    8020281c:	00004797          	auipc	a5,0x4
    80202820:	f9478793          	addi	a5,a5,-108 # 802067b0 <timers>
    80202824:	0007b783          	ld	a5,0(a5)
    80202828:	fcf43823          	sd	a5,-48(s0)
    8020282c:	fd043783          	ld	a5,-48(s0)
    80202830:	fef43423          	sd	a5,-24(s0)
    80202834:	fe843783          	ld	a5,-24(s0)
    80202838:	0107b783          	ld	a5,16(a5)
    8020283c:	fe043703          	ld	a4,-32(s0)
    80202840:	f8f77ee3          	bgeu	a4,a5,802027dc <timer_check+0x4c>
    80202844:	0080006f          	j	8020284c <timer_check+0xbc>
    80202848:	00000013          	nop
    8020284c:	835fd0ef          	jal	ra,80200080 <enable_preempt>
    80202850:	00000013          	nop
    80202854:	02813083          	ld	ra,40(sp)
    80202858:	02013403          	ld	s0,32(sp)
    8020285c:	03010113          	addi	sp,sp,48
    80202860:	00008067          	ret

0000000080202864 <get_ticks>:
    80202864:	ff010113          	addi	sp,sp,-16
    80202868:	00813423          	sd	s0,8(sp)
    8020286c:	01010413          	addi	s0,sp,16
    80202870:	c0102773          	rdtime	a4
    80202874:	84818793          	addi	a5,gp,-1976 # 802068f8 <time_elapsed>
    80202878:	00e7b023          	sd	a4,0(a5)
    8020287c:	84818793          	addi	a5,gp,-1976 # 802068f8 <time_elapsed>
    80202880:	0007b783          	ld	a5,0(a5)
    80202884:	00078513          	mv	a0,a5
    80202888:	00813403          	ld	s0,8(sp)
    8020288c:	01010113          	addi	sp,sp,16
    80202890:	00008067          	ret

0000000080202894 <get_timer>:
    80202894:	ff010113          	addi	sp,sp,-16
    80202898:	00113423          	sd	ra,8(sp)
    8020289c:	00813023          	sd	s0,0(sp)
    802028a0:	01010413          	addi	s0,sp,16
    802028a4:	fc1ff0ef          	jal	ra,80202864 <get_ticks>
    802028a8:	00050713          	mv	a4,a0
    802028ac:	85018793          	addi	a5,gp,-1968 # 80206900 <time_base>
    802028b0:	0007a783          	lw	a5,0(a5)
    802028b4:	02079793          	slli	a5,a5,0x20
    802028b8:	0207d793          	srli	a5,a5,0x20
    802028bc:	02f757b3          	divu	a5,a4,a5
    802028c0:	00078513          	mv	a0,a5
    802028c4:	00813083          	ld	ra,8(sp)
    802028c8:	00013403          	ld	s0,0(sp)
    802028cc:	01010113          	addi	sp,sp,16
    802028d0:	00008067          	ret

00000000802028d4 <get_time_base>:
    802028d4:	ff010113          	addi	sp,sp,-16
    802028d8:	00813423          	sd	s0,8(sp)
    802028dc:	01010413          	addi	s0,sp,16
    802028e0:	85018793          	addi	a5,gp,-1968 # 80206900 <time_base>
    802028e4:	0007a783          	lw	a5,0(a5)
    802028e8:	02079793          	slli	a5,a5,0x20
    802028ec:	0207d793          	srli	a5,a5,0x20
    802028f0:	00078513          	mv	a0,a5
    802028f4:	00813403          	ld	s0,8(sp)
    802028f8:	01010113          	addi	sp,sp,16
    802028fc:	00008067          	ret

0000000080202900 <latency>:
    80202900:	fd010113          	addi	sp,sp,-48
    80202904:	02113423          	sd	ra,40(sp)
    80202908:	02813023          	sd	s0,32(sp)
    8020290c:	03010413          	addi	s0,sp,48
    80202910:	fca43c23          	sd	a0,-40(s0)
    80202914:	f81ff0ef          	jal	ra,80202894 <get_timer>
    80202918:	fea43423          	sd	a0,-24(s0)
    8020291c:	00000013          	nop
    80202920:	f75ff0ef          	jal	ra,80202894 <get_timer>
    80202924:	00050713          	mv	a4,a0
    80202928:	fe843783          	ld	a5,-24(s0)
    8020292c:	40f707b3          	sub	a5,a4,a5
    80202930:	fd843703          	ld	a4,-40(s0)
    80202934:	fee7e6e3          	bltu	a5,a4,80202920 <latency+0x20>
    80202938:	00000013          	nop
    8020293c:	02813083          	ld	ra,40(sp)
    80202940:	02013403          	ld	s0,32(sp)
    80202944:	03010113          	addi	sp,sp,48
    80202948:	00008067          	ret

000000008020294c <sbi_set_timer>:
    8020294c:	fe010113          	addi	sp,sp,-32
    80202950:	00813c23          	sd	s0,24(sp)
    80202954:	02010413          	addi	s0,sp,32
    80202958:	fea43423          	sd	a0,-24(s0)
    8020295c:	fe843503          	ld	a0,-24(s0)
    80202960:	00000593          	li	a1,0
    80202964:	00000613          	li	a2,0
    80202968:	00000893          	li	a7,0
    8020296c:	00000073          	ecall
    80202970:	00000013          	nop
    80202974:	01813403          	ld	s0,24(sp)
    80202978:	02010113          	addi	sp,sp,32
    8020297c:	00008067          	ret

0000000080202980 <sbi_shutdown>:
    80202980:	ff010113          	addi	sp,sp,-16
    80202984:	00813423          	sd	s0,8(sp)
    80202988:	01010413          	addi	s0,sp,16
    8020298c:	00000513          	li	a0,0
    80202990:	00000593          	li	a1,0
    80202994:	00000613          	li	a2,0
    80202998:	00800893          	li	a7,8
    8020299c:	00000073          	ecall
    802029a0:	00000013          	nop
    802029a4:	00813403          	ld	s0,8(sp)
    802029a8:	01010113          	addi	sp,sp,16
    802029ac:	00008067          	ret

00000000802029b0 <_panic>:
    802029b0:	fd010113          	addi	sp,sp,-48
    802029b4:	02113423          	sd	ra,40(sp)
    802029b8:	02813023          	sd	s0,32(sp)
    802029bc:	03010413          	addi	s0,sp,48
    802029c0:	fea43423          	sd	a0,-24(s0)
    802029c4:	00058793          	mv	a5,a1
    802029c8:	fcc43c23          	sd	a2,-40(s0)
    802029cc:	fef42223          	sw	a5,-28(s0)
    802029d0:	fe442783          	lw	a5,-28(s0)
    802029d4:	00078693          	mv	a3,a5
    802029d8:	fe843603          	ld	a2,-24(s0)
    802029dc:	fd843583          	ld	a1,-40(s0)
    802029e0:	00004517          	auipc	a0,0x4
    802029e4:	90850513          	addi	a0,a0,-1784 # 802062e8 <__FUNCTION__.0+0x10>
    802029e8:	ba9fe0ef          	jal	ra,80201590 <printk>
    802029ec:	f95ff0ef          	jal	ra,80202980 <sbi_shutdown>
    802029f0:	0000006f          	j	802029f0 <_panic+0x40>

00000000802029f4 <reset_irq_timer>:
    802029f4:	fe010113          	addi	sp,sp,-32
    802029f8:	00113c23          	sd	ra,24(sp)
    802029fc:	00813823          	sd	s0,16(sp)
    80202a00:	02010413          	addi	s0,sp,32
    80202a04:	750020ef          	jal	ra,80205154 <screen_reflush>
    80202a08:	d89ff0ef          	jal	ra,80202790 <timer_check>
    80202a0c:	e59ff0ef          	jal	ra,80202864 <get_ticks>
    80202a10:	00050713          	mv	a4,a0
    80202a14:	85018793          	addi	a5,gp,-1968 # 80206900 <time_base>
    80202a18:	0007a783          	lw	a5,0(a5)
    80202a1c:	00078693          	mv	a3,a5
    80202a20:	7d000793          	li	a5,2000
    80202a24:	02f6d7bb          	divuw	a5,a3,a5
    80202a28:	0007879b          	sext.w	a5,a5
    80202a2c:	02079793          	slli	a5,a5,0x20
    80202a30:	0207d793          	srli	a5,a5,0x20
    80202a34:	00f707b3          	add	a5,a4,a5
    80202a38:	fef43423          	sd	a5,-24(s0)
    80202a3c:	fe843503          	ld	a0,-24(s0)
    80202a40:	f0dff0ef          	jal	ra,8020294c <sbi_set_timer>
    80202a44:	934ff0ef          	jal	ra,80201b78 <do_scheduler>
    80202a48:	00000013          	nop
    80202a4c:	01813083          	ld	ra,24(sp)
    80202a50:	01013403          	ld	s0,16(sp)
    80202a54:	02010113          	addi	sp,sp,32
    80202a58:	00008067          	ret

0000000080202a5c <interrupt_helper>:
    80202a5c:	fc010113          	addi	sp,sp,-64
    80202a60:	02113c23          	sd	ra,56(sp)
    80202a64:	02813823          	sd	s0,48(sp)
    80202a68:	04010413          	addi	s0,sp,64
    80202a6c:	fca43c23          	sd	a0,-40(s0)
    80202a70:	fcb43823          	sd	a1,-48(s0)
    80202a74:	fcc43423          	sd	a2,-56(s0)
    80202a78:	fc843783          	ld	a5,-56(s0)
    80202a7c:	03f7d793          	srli	a5,a5,0x3f
    80202a80:	fef43423          	sd	a5,-24(s0)
    80202a84:	fc843703          	ld	a4,-56(s0)
    80202a88:	fff00793          	li	a5,-1
    80202a8c:	0017d793          	srli	a5,a5,0x1
    80202a90:	00f777b3          	and	a5,a4,a5
    80202a94:	fef43023          	sd	a5,-32(s0)
    80202a98:	fe843783          	ld	a5,-24(s0)
    80202a9c:	02078663          	beqz	a5,80202ac8 <interrupt_helper+0x6c>
    80202aa0:	e6018713          	addi	a4,gp,-416 # 80206f10 <irq_table>
    80202aa4:	fe043783          	ld	a5,-32(s0)
    80202aa8:	00379793          	slli	a5,a5,0x3
    80202aac:	00f707b3          	add	a5,a4,a5
    80202ab0:	0007b783          	ld	a5,0(a5)
    80202ab4:	fc843603          	ld	a2,-56(s0)
    80202ab8:	fd043583          	ld	a1,-48(s0)
    80202abc:	fd843503          	ld	a0,-40(s0)
    80202ac0:	000780e7          	jalr	a5
    80202ac4:	0280006f          	j	80202aec <interrupt_helper+0x90>
    80202ac8:	ec018713          	addi	a4,gp,-320 # 80206f70 <exc_table>
    80202acc:	fe043783          	ld	a5,-32(s0)
    80202ad0:	00379793          	slli	a5,a5,0x3
    80202ad4:	00f707b3          	add	a5,a4,a5
    80202ad8:	0007b783          	ld	a5,0(a5)
    80202adc:	fc843603          	ld	a2,-56(s0)
    80202ae0:	fd043583          	ld	a1,-48(s0)
    80202ae4:	fd843503          	ld	a0,-40(s0)
    80202ae8:	000780e7          	jalr	a5
    80202aec:	00000013          	nop
    80202af0:	03813083          	ld	ra,56(sp)
    80202af4:	03013403          	ld	s0,48(sp)
    80202af8:	04010113          	addi	sp,sp,64
    80202afc:	00008067          	ret

0000000080202b00 <handle_int>:
    80202b00:	fd010113          	addi	sp,sp,-48
    80202b04:	02113423          	sd	ra,40(sp)
    80202b08:	02813023          	sd	s0,32(sp)
    80202b0c:	03010413          	addi	s0,sp,48
    80202b10:	fea43423          	sd	a0,-24(s0)
    80202b14:	feb43023          	sd	a1,-32(s0)
    80202b18:	fcc43c23          	sd	a2,-40(s0)
    80202b1c:	ed9ff0ef          	jal	ra,802029f4 <reset_irq_timer>
    80202b20:	00000013          	nop
    80202b24:	02813083          	ld	ra,40(sp)
    80202b28:	02013403          	ld	s0,32(sp)
    80202b2c:	03010113          	addi	sp,sp,48
    80202b30:	00008067          	ret

0000000080202b34 <delegate_dasics>:
    80202b34:	fe010113          	addi	sp,sp,-32
    80202b38:	00113c23          	sd	ra,24(sp)
    80202b3c:	00813823          	sd	s0,16(sp)
    80202b40:	02010413          	addi	s0,sp,32
    80202b44:	550007b7          	lui	a5,0x55000
    80202b48:	fef43423          	sd	a5,-24(s0)
    80202b4c:	fe843783          	ld	a5,-24(s0)
    80202b50:	10279073          	csrw	sedeleg,a5
    80202b54:	102027f3          	csrr	a5,sedeleg
    80202b58:	fef43023          	sd	a5,-32(s0)
    80202b5c:	fe043703          	ld	a4,-32(s0)
    80202b60:	fe843783          	ld	a5,-24(s0)
    80202b64:	00f70e63          	beq	a4,a5,80202b80 <delegate_dasics+0x4c>
    80202b68:	00004617          	auipc	a2,0x4
    80202b6c:	92860613          	addi	a2,a2,-1752 # 80206490 <__FUNCTION__.2>
    80202b70:	03700593          	li	a1,55
    80202b74:	00003517          	auipc	a0,0x3
    80202b78:	79c50513          	addi	a0,a0,1948 # 80206310 <__FUNCTION__.0+0x38>
    80202b7c:	e35ff0ef          	jal	ra,802029b0 <_panic>
    80202b80:	00000013          	nop
    80202b84:	01813083          	ld	ra,24(sp)
    80202b88:	01013403          	ld	s0,16(sp)
    80202b8c:	02010113          	addi	sp,sp,32
    80202b90:	00008067          	ret

0000000080202b94 <init_exception>:
    80202b94:	fe010113          	addi	sp,sp,-32
    80202b98:	00113c23          	sd	ra,24(sp)
    80202b9c:	00813823          	sd	s0,16(sp)
    80202ba0:	02010413          	addi	s0,sp,32
    80202ba4:	fe042623          	sw	zero,-20(s0)
    80202ba8:	02c0006f          	j	80202bd4 <init_exception+0x40>
    80202bac:	e6018713          	addi	a4,gp,-416 # 80206f10 <irq_table>
    80202bb0:	fec42783          	lw	a5,-20(s0)
    80202bb4:	00379793          	slli	a5,a5,0x3
    80202bb8:	00f707b3          	add	a5,a4,a5
    80202bbc:	00000717          	auipc	a4,0x0
    80202bc0:	1d470713          	addi	a4,a4,468 # 80202d90 <handle_other>
    80202bc4:	00e7b023          	sd	a4,0(a5) # 55000000 <_start-0x2b200000>
    80202bc8:	fec42783          	lw	a5,-20(s0)
    80202bcc:	0017879b          	addiw	a5,a5,1
    80202bd0:	fef42623          	sw	a5,-20(s0)
    80202bd4:	fec42783          	lw	a5,-20(s0)
    80202bd8:	0007871b          	sext.w	a4,a5
    80202bdc:	00b00793          	li	a5,11
    80202be0:	fce7d6e3          	bge	a5,a4,80202bac <init_exception+0x18>
    80202be4:	fe042423          	sw	zero,-24(s0)
    80202be8:	02c0006f          	j	80202c14 <init_exception+0x80>
    80202bec:	ec018713          	addi	a4,gp,-320 # 80206f70 <exc_table>
    80202bf0:	fe842783          	lw	a5,-24(s0)
    80202bf4:	00379793          	slli	a5,a5,0x3
    80202bf8:	00f707b3          	add	a5,a4,a5
    80202bfc:	00000717          	auipc	a4,0x0
    80202c00:	19470713          	addi	a4,a4,404 # 80202d90 <handle_other>
    80202c04:	00e7b023          	sd	a4,0(a5)
    80202c08:	fe842783          	lw	a5,-24(s0)
    80202c0c:	0017879b          	addiw	a5,a5,1
    80202c10:	fef42423          	sw	a5,-24(s0)
    80202c14:	fe842783          	lw	a5,-24(s0)
    80202c18:	0007871b          	sext.w	a4,a5
    80202c1c:	01f00793          	li	a5,31
    80202c20:	fce7d6e3          	bge	a5,a4,80202bec <init_exception+0x58>
    80202c24:	e6018793          	addi	a5,gp,-416 # 80206f10 <irq_table>
    80202c28:	00000717          	auipc	a4,0x0
    80202c2c:	ed870713          	addi	a4,a4,-296 # 80202b00 <handle_int>
    80202c30:	02e7b423          	sd	a4,40(a5)
    80202c34:	ec018793          	addi	a5,gp,-320 # 80206f70 <exc_table>
    80202c38:	00000717          	auipc	a4,0x0
    80202c3c:	77870713          	addi	a4,a4,1912 # 802033b0 <handle_syscall>
    80202c40:	04e7b023          	sd	a4,64(a5)
    80202c44:	ec018793          	addi	a5,gp,-320 # 80206f70 <exc_table>
    80202c48:	00000717          	auipc	a4,0x0
    80202c4c:	04870713          	addi	a4,a4,72 # 80202c90 <handle_dasics>
    80202c50:	0ce7b423          	sd	a4,200(a5)
    80202c54:	ec018793          	addi	a5,gp,-320 # 80206f70 <exc_table>
    80202c58:	00000717          	auipc	a4,0x0
    80202c5c:	03870713          	addi	a4,a4,56 # 80202c90 <handle_dasics>
    80202c60:	0ce7bc23          	sd	a4,216(a5)
    80202c64:	ec018793          	addi	a5,gp,-320 # 80206f70 <exc_table>
    80202c68:	00000717          	auipc	a4,0x0
    80202c6c:	02870713          	addi	a4,a4,40 # 80202c90 <handle_dasics>
    80202c70:	0ee7b423          	sd	a4,232(a5)
    80202c74:	ec1ff0ef          	jal	ra,80202b34 <delegate_dasics>
    80202c78:	bf0fd0ef          	jal	ra,80200068 <setup_exception>
    80202c7c:	00000013          	nop
    80202c80:	01813083          	ld	ra,24(sp)
    80202c84:	01013403          	ld	s0,16(sp)
    80202c88:	02010113          	addi	sp,sp,32
    80202c8c:	00008067          	ret

0000000080202c90 <handle_dasics>:
    80202c90:	fd010113          	addi	sp,sp,-48
    80202c94:	02113423          	sd	ra,40(sp)
    80202c98:	02813023          	sd	s0,32(sp)
    80202c9c:	03010413          	addi	s0,sp,48
    80202ca0:	fea43423          	sd	a0,-24(s0)
    80202ca4:	feb43023          	sd	a1,-32(s0)
    80202ca8:	fcc43c23          	sd	a2,-40(s0)
    80202cac:	fd843703          	ld	a4,-40(s0)
    80202cb0:	01d00793          	li	a5,29
    80202cb4:	04f70663          	beq	a4,a5,80202d00 <handle_dasics+0x70>
    80202cb8:	fd843703          	ld	a4,-40(s0)
    80202cbc:	01d00793          	li	a5,29
    80202cc0:	04e7e863          	bltu	a5,a4,80202d10 <handle_dasics+0x80>
    80202cc4:	fd843703          	ld	a4,-40(s0)
    80202cc8:	01900793          	li	a5,25
    80202ccc:	00f70a63          	beq	a4,a5,80202ce0 <handle_dasics+0x50>
    80202cd0:	fd843703          	ld	a4,-40(s0)
    80202cd4:	01b00793          	li	a5,27
    80202cd8:	00f70c63          	beq	a4,a5,80202cf0 <handle_dasics+0x60>
    80202cdc:	0340006f          	j	80202d10 <handle_dasics+0x80>
    80202ce0:	00003517          	auipc	a0,0x3
    80202ce4:	64850513          	addi	a0,a0,1608 # 80206328 <__FUNCTION__.0+0x50>
    80202ce8:	8a9fe0ef          	jal	ra,80201590 <printk>
    80202cec:	07c0006f          	j	80202d68 <handle_dasics+0xd8>
    80202cf0:	00003517          	auipc	a0,0x3
    80202cf4:	68050513          	addi	a0,a0,1664 # 80206370 <__FUNCTION__.0+0x98>
    80202cf8:	899fe0ef          	jal	ra,80201590 <printk>
    80202cfc:	06c0006f          	j	80202d68 <handle_dasics+0xd8>
    80202d00:	00003517          	auipc	a0,0x3
    80202d04:	6b850513          	addi	a0,a0,1720 # 802063b8 <__FUNCTION__.0+0xe0>
    80202d08:	889fe0ef          	jal	ra,80201590 <printk>
    80202d0c:	05c0006f          	j	80202d68 <handle_dasics+0xd8>
    80202d10:	00003517          	auipc	a0,0x3
    80202d14:	6f050513          	addi	a0,a0,1776 # 80206400 <__FUNCTION__.0+0x128>
    80202d18:	879fe0ef          	jal	ra,80201590 <printk>
    80202d1c:	fe843783          	ld	a5,-24(s0)
    80202d20:	1007b703          	ld	a4,256(a5)
    80202d24:	fe843783          	ld	a5,-24(s0)
    80202d28:	1107b603          	ld	a2,272(a5)
    80202d2c:	fe843783          	ld	a5,-24(s0)
    80202d30:	1187b783          	ld	a5,280(a5)
    80202d34:	00078693          	mv	a3,a5
    80202d38:	00070593          	mv	a1,a4
    80202d3c:	00003517          	auipc	a0,0x3
    80202d40:	6fc50513          	addi	a0,a0,1788 # 80206438 <__FUNCTION__.0+0x160>
    80202d44:	84dfe0ef          	jal	ra,80201590 <printk>
    80202d48:	fe843783          	ld	a5,-24(s0)
    80202d4c:	1087b783          	ld	a5,264(a5)
    80202d50:	00078593          	mv	a1,a5
    80202d54:	00003517          	auipc	a0,0x3
    80202d58:	71450513          	addi	a0,a0,1812 # 80206468 <__FUNCTION__.0+0x190>
    80202d5c:	835fe0ef          	jal	ra,80201590 <printk>
    80202d60:	c21ff0ef          	jal	ra,80202980 <sbi_shutdown>
    80202d64:	00000013          	nop
    80202d68:	fe843783          	ld	a5,-24(s0)
    80202d6c:	1087b783          	ld	a5,264(a5)
    80202d70:	00478713          	addi	a4,a5,4
    80202d74:	fe843783          	ld	a5,-24(s0)
    80202d78:	10e7b423          	sd	a4,264(a5)
    80202d7c:	00000013          	nop
    80202d80:	02813083          	ld	ra,40(sp)
    80202d84:	02013403          	ld	s0,32(sp)
    80202d88:	03010113          	addi	sp,sp,48
    80202d8c:	00008067          	ret

0000000080202d90 <handle_other>:
    80202d90:	fc010113          	addi	sp,sp,-64
    80202d94:	02113c23          	sd	ra,56(sp)
    80202d98:	02813823          	sd	s0,48(sp)
    80202d9c:	04010413          	addi	s0,sp,64
    80202da0:	fca43c23          	sd	a0,-40(s0)
    80202da4:	fcb43823          	sd	a1,-48(s0)
    80202da8:	fcc43423          	sd	a2,-56(s0)
    80202dac:	fe042623          	sw	zero,-20(s0)
    80202db0:	0b40006f          	j	80202e64 <handle_other+0xd4>
    80202db4:	fe042423          	sw	zero,-24(s0)
    80202db8:	0680006f          	j	80202e20 <handle_other+0x90>
    80202dbc:	fec42703          	lw	a4,-20(s0)
    80202dc0:	fe842783          	lw	a5,-24(s0)
    80202dc4:	00f707bb          	addw	a5,a4,a5
    80202dc8:	0007879b          	sext.w	a5,a5
    80202dcc:	00004717          	auipc	a4,0x4
    80202dd0:	a0470713          	addi	a4,a4,-1532 # 802067d0 <reg_name.1>
    80202dd4:	00379793          	slli	a5,a5,0x3
    80202dd8:	00f707b3          	add	a5,a4,a5
    80202ddc:	0007b683          	ld	a3,0(a5)
    80202de0:	fec42703          	lw	a4,-20(s0)
    80202de4:	fe842783          	lw	a5,-24(s0)
    80202de8:	00f707bb          	addw	a5,a4,a5
    80202dec:	0007879b          	sext.w	a5,a5
    80202df0:	fd843703          	ld	a4,-40(s0)
    80202df4:	00379793          	slli	a5,a5,0x3
    80202df8:	00f707b3          	add	a5,a4,a5
    80202dfc:	0007b783          	ld	a5,0(a5)
    80202e00:	00078613          	mv	a2,a5
    80202e04:	00068593          	mv	a1,a3
    80202e08:	00003517          	auipc	a0,0x3
    80202e0c:	67050513          	addi	a0,a0,1648 # 80206478 <__FUNCTION__.0+0x1a0>
    80202e10:	f80fe0ef          	jal	ra,80201590 <printk>
    80202e14:	fe842783          	lw	a5,-24(s0)
    80202e18:	0017879b          	addiw	a5,a5,1
    80202e1c:	fef42423          	sw	a5,-24(s0)
    80202e20:	fe842783          	lw	a5,-24(s0)
    80202e24:	0007871b          	sext.w	a4,a5
    80202e28:	00200793          	li	a5,2
    80202e2c:	02e7c063          	blt	a5,a4,80202e4c <handle_other+0xbc>
    80202e30:	fec42703          	lw	a4,-20(s0)
    80202e34:	fe842783          	lw	a5,-24(s0)
    80202e38:	00f707bb          	addw	a5,a4,a5
    80202e3c:	0007879b          	sext.w	a5,a5
    80202e40:	00078713          	mv	a4,a5
    80202e44:	01f00793          	li	a5,31
    80202e48:	f6e7dae3          	bge	a5,a4,80202dbc <handle_other+0x2c>
    80202e4c:	00003517          	auipc	a0,0x3
    80202e50:	63c50513          	addi	a0,a0,1596 # 80206488 <__FUNCTION__.0+0x1b0>
    80202e54:	f3cfe0ef          	jal	ra,80201590 <printk>
    80202e58:	fec42783          	lw	a5,-20(s0)
    80202e5c:	0037879b          	addiw	a5,a5,3
    80202e60:	fef42623          	sw	a5,-20(s0)
    80202e64:	fec42783          	lw	a5,-20(s0)
    80202e68:	0007871b          	sext.w	a4,a5
    80202e6c:	01f00793          	li	a5,31
    80202e70:	f4e7d2e3          	bge	a5,a4,80202db4 <handle_other+0x24>
    80202e74:	fd843783          	ld	a5,-40(s0)
    80202e78:	1007b703          	ld	a4,256(a5)
    80202e7c:	fd843783          	ld	a5,-40(s0)
    80202e80:	1107b603          	ld	a2,272(a5)
    80202e84:	fd843783          	ld	a5,-40(s0)
    80202e88:	1187b783          	ld	a5,280(a5)
    80202e8c:	00078693          	mv	a3,a5
    80202e90:	00070593          	mv	a1,a4
    80202e94:	00003517          	auipc	a0,0x3
    80202e98:	5a450513          	addi	a0,a0,1444 # 80206438 <__FUNCTION__.0+0x160>
    80202e9c:	ef4fe0ef          	jal	ra,80201590 <printk>
    80202ea0:	fd843783          	ld	a5,-40(s0)
    80202ea4:	1087b783          	ld	a5,264(a5)
    80202ea8:	00078593          	mv	a1,a5
    80202eac:	00003517          	auipc	a0,0x3
    80202eb0:	5bc50513          	addi	a0,a0,1468 # 80206468 <__FUNCTION__.0+0x190>
    80202eb4:	edcfe0ef          	jal	ra,80201590 <printk>
    80202eb8:	00003617          	auipc	a2,0x3
    80202ebc:	6e860613          	addi	a2,a2,1768 # 802065a0 <__FUNCTION__.0>
    80202ec0:	07a00593          	li	a1,122
    80202ec4:	00003517          	auipc	a0,0x3
    80202ec8:	44c50513          	addi	a0,a0,1100 # 80206310 <__FUNCTION__.0+0x38>
    80202ecc:	ae5ff0ef          	jal	ra,802029b0 <_panic>
    80202ed0:	00000013          	nop
    80202ed4:	03813083          	ld	ra,56(sp)
    80202ed8:	03013403          	ld	s0,48(sp)
    80202edc:	04010113          	addi	sp,sp,64
    80202ee0:	00008067          	ret

0000000080202ee4 <init_list_head>:
    80202ee4:	fe010113          	addi	sp,sp,-32
    80202ee8:	00813c23          	sd	s0,24(sp)
    80202eec:	02010413          	addi	s0,sp,32
    80202ef0:	fea43423          	sd	a0,-24(s0)
    80202ef4:	fe843783          	ld	a5,-24(s0)
    80202ef8:	fe843703          	ld	a4,-24(s0)
    80202efc:	00e7b023          	sd	a4,0(a5)
    80202f00:	fe843783          	ld	a5,-24(s0)
    80202f04:	fe843703          	ld	a4,-24(s0)
    80202f08:	00e7b423          	sd	a4,8(a5)
    80202f0c:	00000013          	nop
    80202f10:	01813403          	ld	s0,24(sp)
    80202f14:	02010113          	addi	sp,sp,32
    80202f18:	00008067          	ret

0000000080202f1c <_list_add>:
    80202f1c:	fd010113          	addi	sp,sp,-48
    80202f20:	02813423          	sd	s0,40(sp)
    80202f24:	03010413          	addi	s0,sp,48
    80202f28:	fea43423          	sd	a0,-24(s0)
    80202f2c:	feb43023          	sd	a1,-32(s0)
    80202f30:	fcc43c23          	sd	a2,-40(s0)
    80202f34:	fd843783          	ld	a5,-40(s0)
    80202f38:	fe843703          	ld	a4,-24(s0)
    80202f3c:	00e7b423          	sd	a4,8(a5)
    80202f40:	fe843783          	ld	a5,-24(s0)
    80202f44:	fd843703          	ld	a4,-40(s0)
    80202f48:	00e7b023          	sd	a4,0(a5)
    80202f4c:	fe843783          	ld	a5,-24(s0)
    80202f50:	fe043703          	ld	a4,-32(s0)
    80202f54:	00e7b423          	sd	a4,8(a5)
    80202f58:	fe043783          	ld	a5,-32(s0)
    80202f5c:	fe843703          	ld	a4,-24(s0)
    80202f60:	00e7b023          	sd	a4,0(a5)
    80202f64:	00000013          	nop
    80202f68:	02813403          	ld	s0,40(sp)
    80202f6c:	03010113          	addi	sp,sp,48
    80202f70:	00008067          	ret

0000000080202f74 <list_add_tail>:
    80202f74:	fe010113          	addi	sp,sp,-32
    80202f78:	00113c23          	sd	ra,24(sp)
    80202f7c:	00813823          	sd	s0,16(sp)
    80202f80:	02010413          	addi	s0,sp,32
    80202f84:	fea43423          	sd	a0,-24(s0)
    80202f88:	feb43023          	sd	a1,-32(s0)
    80202f8c:	fe043783          	ld	a5,-32(s0)
    80202f90:	0087b783          	ld	a5,8(a5)
    80202f94:	fe043603          	ld	a2,-32(s0)
    80202f98:	00078593          	mv	a1,a5
    80202f9c:	fe843503          	ld	a0,-24(s0)
    80202fa0:	f7dff0ef          	jal	ra,80202f1c <_list_add>
    80202fa4:	00000013          	nop
    80202fa8:	01813083          	ld	ra,24(sp)
    80202fac:	01013403          	ld	s0,16(sp)
    80202fb0:	02010113          	addi	sp,sp,32
    80202fb4:	00008067          	ret

0000000080202fb8 <list_empty>:
    80202fb8:	fe010113          	addi	sp,sp,-32
    80202fbc:	00813c23          	sd	s0,24(sp)
    80202fc0:	02010413          	addi	s0,sp,32
    80202fc4:	fea43423          	sd	a0,-24(s0)
    80202fc8:	fe843783          	ld	a5,-24(s0)
    80202fcc:	0007b783          	ld	a5,0(a5)
    80202fd0:	fe843703          	ld	a4,-24(s0)
    80202fd4:	40f707b3          	sub	a5,a4,a5
    80202fd8:	0017b793          	seqz	a5,a5
    80202fdc:	0ff7f793          	zext.b	a5,a5
    80202fe0:	0007879b          	sext.w	a5,a5
    80202fe4:	00078513          	mv	a0,a5
    80202fe8:	01813403          	ld	s0,24(sp)
    80202fec:	02010113          	addi	sp,sp,32
    80202ff0:	00008067          	ret

0000000080202ff4 <sbi_shutdown>:
    80202ff4:	ff010113          	addi	sp,sp,-16
    80202ff8:	00813423          	sd	s0,8(sp)
    80202ffc:	01010413          	addi	s0,sp,16
    80203000:	00000513          	li	a0,0
    80203004:	00000593          	li	a1,0
    80203008:	00000613          	li	a2,0
    8020300c:	00800893          	li	a7,8
    80203010:	00000073          	ecall
    80203014:	00000013          	nop
    80203018:	00813403          	ld	s0,8(sp)
    8020301c:	01010113          	addi	sp,sp,16
    80203020:	00008067          	ret

0000000080203024 <_panic>:
    80203024:	fd010113          	addi	sp,sp,-48
    80203028:	02113423          	sd	ra,40(sp)
    8020302c:	02813023          	sd	s0,32(sp)
    80203030:	03010413          	addi	s0,sp,48
    80203034:	fea43423          	sd	a0,-24(s0)
    80203038:	00058793          	mv	a5,a1
    8020303c:	fcc43c23          	sd	a2,-40(s0)
    80203040:	fef42223          	sw	a5,-28(s0)
    80203044:	fe442783          	lw	a5,-28(s0)
    80203048:	00078693          	mv	a3,a5
    8020304c:	fe843603          	ld	a2,-24(s0)
    80203050:	fd843583          	ld	a1,-40(s0)
    80203054:	00003517          	auipc	a0,0x3
    80203058:	55c50513          	addi	a0,a0,1372 # 802065b0 <__FUNCTION__.0+0x10>
    8020305c:	d34fe0ef          	jal	ra,80201590 <printk>
    80203060:	f95ff0ef          	jal	ra,80202ff4 <sbi_shutdown>
    80203064:	0000006f          	j	80203064 <_panic+0x40>

0000000080203068 <init_system_futex>:
    80203068:	fe010113          	addi	sp,sp,-32
    8020306c:	00113c23          	sd	ra,24(sp)
    80203070:	00813823          	sd	s0,16(sp)
    80203074:	02010413          	addi	s0,sp,32
    80203078:	830fd0ef          	jal	ra,802000a8 <disable_preempt>
    8020307c:	fe042623          	sw	zero,-20(s0)
    80203080:	0280006f          	j	802030a8 <init_system_futex+0x40>
    80203084:	fec42783          	lw	a5,-20(s0)
    80203088:	00479713          	slli	a4,a5,0x4
    8020308c:	fc018793          	addi	a5,gp,-64 # 80207070 <futex_buckets>
    80203090:	00f707b3          	add	a5,a4,a5
    80203094:	00078513          	mv	a0,a5
    80203098:	e4dff0ef          	jal	ra,80202ee4 <init_list_head>
    8020309c:	fec42783          	lw	a5,-20(s0)
    802030a0:	0017879b          	addiw	a5,a5,1
    802030a4:	fef42623          	sw	a5,-20(s0)
    802030a8:	fec42783          	lw	a5,-20(s0)
    802030ac:	0007871b          	sext.w	a4,a5
    802030b0:	06300793          	li	a5,99
    802030b4:	fce7d8e3          	bge	a5,a4,80203084 <init_system_futex+0x1c>
    802030b8:	fc9fc0ef          	jal	ra,80200080 <enable_preempt>
    802030bc:	00000013          	nop
    802030c0:	01813083          	ld	ra,24(sp)
    802030c4:	01013403          	ld	s0,16(sp)
    802030c8:	02010113          	addi	sp,sp,32
    802030cc:	00008067          	ret

00000000802030d0 <futex_hash>:
    802030d0:	fe010113          	addi	sp,sp,-32
    802030d4:	00813c23          	sd	s0,24(sp)
    802030d8:	02010413          	addi	s0,sp,32
    802030dc:	fea43423          	sd	a0,-24(s0)
    802030e0:	fe843783          	ld	a5,-24(s0)
    802030e4:	01e7d713          	srli	a4,a5,0x1e
    802030e8:	fe843783          	ld	a5,-24(s0)
    802030ec:	00f74733          	xor	a4,a4,a5
    802030f0:	00003797          	auipc	a5,0x3
    802030f4:	51878793          	addi	a5,a5,1304 # 80206608 <__FUNCTION__.0+0x10>
    802030f8:	0007b783          	ld	a5,0(a5)
    802030fc:	02f707b3          	mul	a5,a4,a5
    80203100:	fef43423          	sd	a5,-24(s0)
    80203104:	fe843783          	ld	a5,-24(s0)
    80203108:	01b7d713          	srli	a4,a5,0x1b
    8020310c:	fe843783          	ld	a5,-24(s0)
    80203110:	00f74733          	xor	a4,a4,a5
    80203114:	00003797          	auipc	a5,0x3
    80203118:	4fc78793          	addi	a5,a5,1276 # 80206610 <__FUNCTION__.0+0x18>
    8020311c:	0007b783          	ld	a5,0(a5)
    80203120:	02f707b3          	mul	a5,a4,a5
    80203124:	fef43423          	sd	a5,-24(s0)
    80203128:	fe843783          	ld	a5,-24(s0)
    8020312c:	01f7d793          	srli	a5,a5,0x1f
    80203130:	fe843703          	ld	a4,-24(s0)
    80203134:	00f747b3          	xor	a5,a4,a5
    80203138:	fef43423          	sd	a5,-24(s0)
    8020313c:	fe843703          	ld	a4,-24(s0)
    80203140:	06400793          	li	a5,100
    80203144:	02f777b3          	remu	a5,a4,a5
    80203148:	0007879b          	sext.w	a5,a5
    8020314c:	00078513          	mv	a0,a5
    80203150:	01813403          	ld	s0,24(sp)
    80203154:	02010113          	addi	sp,sp,32
    80203158:	00008067          	ret

000000008020315c <get_node>:
    8020315c:	fb010113          	addi	sp,sp,-80
    80203160:	04113423          	sd	ra,72(sp)
    80203164:	04813023          	sd	s0,64(sp)
    80203168:	05010413          	addi	s0,sp,80
    8020316c:	faa43c23          	sd	a0,-72(s0)
    80203170:	00058793          	mv	a5,a1
    80203174:	faf42a23          	sw	a5,-76(s0)
    80203178:	fb843783          	ld	a5,-72(s0)
    8020317c:	00078513          	mv	a0,a5
    80203180:	f51ff0ef          	jal	ra,802030d0 <futex_hash>
    80203184:	00050793          	mv	a5,a0
    80203188:	fef42223          	sw	a5,-28(s0)
    8020318c:	fe442783          	lw	a5,-28(s0)
    80203190:	00479713          	slli	a4,a5,0x4
    80203194:	fc018793          	addi	a5,gp,-64 # 80207070 <futex_buckets>
    80203198:	00f707b3          	add	a5,a4,a5
    8020319c:	fcf43c23          	sd	a5,-40(s0)
    802031a0:	fd843783          	ld	a5,-40(s0)
    802031a4:	0007b783          	ld	a5,0(a5)
    802031a8:	fef43423          	sd	a5,-24(s0)
    802031ac:	03c0006f          	j	802031e8 <get_node+0x8c>
    802031b0:	fe843783          	ld	a5,-24(s0)
    802031b4:	fcf43423          	sd	a5,-56(s0)
    802031b8:	fc843783          	ld	a5,-56(s0)
    802031bc:	ff878793          	addi	a5,a5,-8
    802031c0:	fcf43023          	sd	a5,-64(s0)
    802031c4:	fc043783          	ld	a5,-64(s0)
    802031c8:	0007b703          	ld	a4,0(a5)
    802031cc:	fb843783          	ld	a5,-72(s0)
    802031d0:	00f71663          	bne	a4,a5,802031dc <get_node+0x80>
    802031d4:	fc043783          	ld	a5,-64(s0)
    802031d8:	0800006f          	j	80203258 <get_node+0xfc>
    802031dc:	fe843783          	ld	a5,-24(s0)
    802031e0:	0007b783          	ld	a5,0(a5)
    802031e4:	fef43423          	sd	a5,-24(s0)
    802031e8:	fe843703          	ld	a4,-24(s0)
    802031ec:	fd843783          	ld	a5,-40(s0)
    802031f0:	fcf710e3          	bne	a4,a5,802031b0 <get_node+0x54>
    802031f4:	fb442783          	lw	a5,-76(s0)
    802031f8:	0007879b          	sext.w	a5,a5
    802031fc:	04078c63          	beqz	a5,80203254 <get_node+0xf8>
    80203200:	02800513          	li	a0,40
    80203204:	efcfe0ef          	jal	ra,80201900 <kmalloc>
    80203208:	fca43823          	sd	a0,-48(s0)
    8020320c:	fb843703          	ld	a4,-72(s0)
    80203210:	fd043783          	ld	a5,-48(s0)
    80203214:	00e7b023          	sd	a4,0(a5)
    80203218:	fd043783          	ld	a5,-48(s0)
    8020321c:	01878793          	addi	a5,a5,24
    80203220:	00078513          	mv	a0,a5
    80203224:	cc1ff0ef          	jal	ra,80202ee4 <init_list_head>
    80203228:	fd043783          	ld	a5,-48(s0)
    8020322c:	00878693          	addi	a3,a5,8
    80203230:	fe442783          	lw	a5,-28(s0)
    80203234:	00479713          	slli	a4,a5,0x4
    80203238:	fc018793          	addi	a5,gp,-64 # 80207070 <futex_buckets>
    8020323c:	00f707b3          	add	a5,a4,a5
    80203240:	00078593          	mv	a1,a5
    80203244:	00068513          	mv	a0,a3
    80203248:	d2dff0ef          	jal	ra,80202f74 <list_add_tail>
    8020324c:	fd043783          	ld	a5,-48(s0)
    80203250:	0080006f          	j	80203258 <get_node+0xfc>
    80203254:	00000793          	li	a5,0
    80203258:	00078513          	mv	a0,a5
    8020325c:	04813083          	ld	ra,72(sp)
    80203260:	04013403          	ld	s0,64(sp)
    80203264:	05010113          	addi	sp,sp,80
    80203268:	00008067          	ret

000000008020326c <futex_wait>:
    8020326c:	fd010113          	addi	sp,sp,-48
    80203270:	02113423          	sd	ra,40(sp)
    80203274:	02813023          	sd	s0,32(sp)
    80203278:	03010413          	addi	s0,sp,48
    8020327c:	fca43c23          	sd	a0,-40(s0)
    80203280:	fcb43823          	sd	a1,-48(s0)
    80203284:	e25fc0ef          	jal	ra,802000a8 <disable_preempt>
    80203288:	00100593          	li	a1,1
    8020328c:	fd843503          	ld	a0,-40(s0)
    80203290:	ecdff0ef          	jal	ra,8020315c <get_node>
    80203294:	fea43423          	sd	a0,-24(s0)
    80203298:	fe843783          	ld	a5,-24(s0)
    8020329c:	00079e63          	bnez	a5,802032b8 <futex_wait+0x4c>
    802032a0:	00003617          	auipc	a2,0x3
    802032a4:	35860613          	addi	a2,a2,856 # 802065f8 <__FUNCTION__.0>
    802032a8:	03500593          	li	a1,53
    802032ac:	00003517          	auipc	a0,0x3
    802032b0:	32c50513          	addi	a0,a0,812 # 802065d8 <__FUNCTION__.0+0x38>
    802032b4:	d71ff0ef          	jal	ra,80203024 <_panic>
    802032b8:	fd843783          	ld	a5,-40(s0)
    802032bc:	0007b783          	ld	a5,0(a5)
    802032c0:	fd043703          	ld	a4,-48(s0)
    802032c4:	02f71463          	bne	a4,a5,802032ec <futex_wait+0x80>
    802032c8:	84018793          	addi	a5,gp,-1984 # 802068f0 <current_running>
    802032cc:	0007b783          	ld	a5,0(a5)
    802032d0:	02878713          	addi	a4,a5,40
    802032d4:	fe843783          	ld	a5,-24(s0)
    802032d8:	01878793          	addi	a5,a5,24
    802032dc:	00078593          	mv	a1,a5
    802032e0:	00070513          	mv	a0,a4
    802032e4:	ad5fe0ef          	jal	ra,80201db8 <do_block>
    802032e8:	891fe0ef          	jal	ra,80201b78 <do_scheduler>
    802032ec:	d95fc0ef          	jal	ra,80200080 <enable_preempt>
    802032f0:	00000013          	nop
    802032f4:	02813083          	ld	ra,40(sp)
    802032f8:	02013403          	ld	s0,32(sp)
    802032fc:	03010113          	addi	sp,sp,48
    80203300:	00008067          	ret

0000000080203304 <futex_wakeup>:
    80203304:	fd010113          	addi	sp,sp,-48
    80203308:	02113423          	sd	ra,40(sp)
    8020330c:	02813023          	sd	s0,32(sp)
    80203310:	03010413          	addi	s0,sp,48
    80203314:	fca43c23          	sd	a0,-40(s0)
    80203318:	00058793          	mv	a5,a1
    8020331c:	fcf42a23          	sw	a5,-44(s0)
    80203320:	d89fc0ef          	jal	ra,802000a8 <disable_preempt>
    80203324:	00000593          	li	a1,0
    80203328:	fd843503          	ld	a0,-40(s0)
    8020332c:	e31ff0ef          	jal	ra,8020315c <get_node>
    80203330:	fea43023          	sd	a0,-32(s0)
    80203334:	fe043783          	ld	a5,-32(s0)
    80203338:	04078e63          	beqz	a5,80203394 <futex_wakeup+0x90>
    8020333c:	fe042623          	sw	zero,-20(s0)
    80203340:	0380006f          	j	80203378 <futex_wakeup+0x74>
    80203344:	fe043783          	ld	a5,-32(s0)
    80203348:	01878793          	addi	a5,a5,24
    8020334c:	00078513          	mv	a0,a5
    80203350:	c69ff0ef          	jal	ra,80202fb8 <list_empty>
    80203354:	00050793          	mv	a5,a0
    80203358:	02079c63          	bnez	a5,80203390 <futex_wakeup+0x8c>
    8020335c:	fe043783          	ld	a5,-32(s0)
    80203360:	0187b783          	ld	a5,24(a5)
    80203364:	00078513          	mv	a0,a5
    80203368:	af5fe0ef          	jal	ra,80201e5c <do_unblock>
    8020336c:	fec42783          	lw	a5,-20(s0)
    80203370:	0017879b          	addiw	a5,a5,1
    80203374:	fef42623          	sw	a5,-20(s0)
    80203378:	fec42703          	lw	a4,-20(s0)
    8020337c:	fd442783          	lw	a5,-44(s0)
    80203380:	0007071b          	sext.w	a4,a4
    80203384:	0007879b          	sext.w	a5,a5
    80203388:	faf74ee3          	blt	a4,a5,80203344 <futex_wakeup+0x40>
    8020338c:	0080006f          	j	80203394 <futex_wakeup+0x90>
    80203390:	00000013          	nop
    80203394:	fe4fe0ef          	jal	ra,80201b78 <do_scheduler>
    80203398:	ce9fc0ef          	jal	ra,80200080 <enable_preempt>
    8020339c:	00000013          	nop
    802033a0:	02813083          	ld	ra,40(sp)
    802033a4:	02013403          	ld	s0,32(sp)
    802033a8:	03010113          	addi	sp,sp,48
    802033ac:	00008067          	ret

00000000802033b0 <handle_syscall>:
    802033b0:	fd010113          	addi	sp,sp,-48
    802033b4:	02113423          	sd	ra,40(sp)
    802033b8:	02813023          	sd	s0,32(sp)
    802033bc:	03010413          	addi	s0,sp,48
    802033c0:	fea43423          	sd	a0,-24(s0)
    802033c4:	feb43023          	sd	a1,-32(s0)
    802033c8:	fcc43c23          	sd	a2,-40(s0)
    802033cc:	fe843783          	ld	a5,-24(s0)
    802033d0:	1087b783          	ld	a5,264(a5)
    802033d4:	00478713          	addi	a4,a5,4
    802033d8:	fe843783          	ld	a5,-24(s0)
    802033dc:	10e7b423          	sd	a4,264(a5)
    802033e0:	fe843783          	ld	a5,-24(s0)
    802033e4:	0887b783          	ld	a5,136(a5)
    802033e8:	00004717          	auipc	a4,0x4
    802033ec:	2c870713          	addi	a4,a4,712 # 802076b0 <syscall>
    802033f0:	00379793          	slli	a5,a5,0x3
    802033f4:	00f707b3          	add	a5,a4,a5
    802033f8:	0007b803          	ld	a6,0(a5)
    802033fc:	fe843783          	ld	a5,-24(s0)
    80203400:	0507b703          	ld	a4,80(a5)
    80203404:	fe843783          	ld	a5,-24(s0)
    80203408:	0587b683          	ld	a3,88(a5)
    8020340c:	fe843783          	ld	a5,-24(s0)
    80203410:	0607b783          	ld	a5,96(a5)
    80203414:	00078613          	mv	a2,a5
    80203418:	00068593          	mv	a1,a3
    8020341c:	00070513          	mv	a0,a4
    80203420:	000800e7          	jalr	a6
    80203424:	00050793          	mv	a5,a0
    80203428:	00078713          	mv	a4,a5
    8020342c:	fe843783          	ld	a5,-24(s0)
    80203430:	04e7b823          	sd	a4,80(a5)
    80203434:	00000013          	nop
    80203438:	02813083          	ld	ra,40(sp)
    8020343c:	02013403          	ld	s0,32(sp)
    80203440:	03010113          	addi	sp,sp,48
    80203444:	00008067          	ret

0000000080203448 <sbi_shutdown>:
    80203448:	ff010113          	addi	sp,sp,-16
    8020344c:	00813423          	sd	s0,8(sp)
    80203450:	01010413          	addi	s0,sp,16
    80203454:	00000513          	li	a0,0
    80203458:	00000593          	li	a1,0
    8020345c:	00000613          	li	a2,0
    80203460:	00800893          	li	a7,8
    80203464:	00000073          	ecall
    80203468:	00000013          	nop
    8020346c:	00813403          	ld	s0,8(sp)
    80203470:	01010113          	addi	sp,sp,16
    80203474:	00008067          	ret

0000000080203478 <sbi_modify_smain_bound>:
    80203478:	fe010113          	addi	sp,sp,-32
    8020347c:	00813c23          	sd	s0,24(sp)
    80203480:	02010413          	addi	s0,sp,32
    80203484:	fea43423          	sd	a0,-24(s0)
    80203488:	feb43023          	sd	a1,-32(s0)
    8020348c:	fe843503          	ld	a0,-24(s0)
    80203490:	fe043583          	ld	a1,-32(s0)
    80203494:	00000613          	li	a2,0
    80203498:	00d00893          	li	a7,13
    8020349c:	00000073          	ecall
    802034a0:	00050793          	mv	a5,a0
    802034a4:	0007879b          	sext.w	a5,a5
    802034a8:	00078513          	mv	a0,a5
    802034ac:	01813403          	ld	s0,24(sp)
    802034b0:	02010113          	addi	sp,sp,32
    802034b4:	00008067          	ret

00000000802034b8 <_panic>:
    802034b8:	fd010113          	addi	sp,sp,-48
    802034bc:	02113423          	sd	ra,40(sp)
    802034c0:	02813023          	sd	s0,32(sp)
    802034c4:	03010413          	addi	s0,sp,48
    802034c8:	fea43423          	sd	a0,-24(s0)
    802034cc:	00058793          	mv	a5,a1
    802034d0:	fcc43c23          	sd	a2,-40(s0)
    802034d4:	fef42223          	sw	a5,-28(s0)
    802034d8:	fe442783          	lw	a5,-28(s0)
    802034dc:	00078693          	mv	a3,a5
    802034e0:	fe843603          	ld	a2,-24(s0)
    802034e4:	fd843583          	ld	a1,-40(s0)
    802034e8:	00003517          	auipc	a0,0x3
    802034ec:	14850513          	addi	a0,a0,328 # 80206630 <__FUNCTION__.0+0x38>
    802034f0:	8a0fe0ef          	jal	ra,80201590 <printk>
    802034f4:	f55ff0ef          	jal	ra,80203448 <sbi_shutdown>
    802034f8:	0000006f          	j	802034f8 <_panic+0x40>

00000000802034fc <init_pcb>:
    802034fc:	fe010113          	addi	sp,sp,-32
    80203500:	00113c23          	sd	ra,24(sp)
    80203504:	00813823          	sd	s0,16(sp)
    80203508:	02010413          	addi	s0,sp,32
    8020350c:	fe042623          	sw	zero,-20(s0)
    80203510:	0380006f          	j	80203548 <init_pcb+0x4c>
    80203514:	00003697          	auipc	a3,0x3
    80203518:	3fc68693          	addi	a3,a3,1020 # 80206910 <pcb>
    8020351c:	fec42703          	lw	a4,-20(s0)
    80203520:	00070793          	mv	a5,a4
    80203524:	00179793          	slli	a5,a5,0x1
    80203528:	00e787b3          	add	a5,a5,a4
    8020352c:	00579793          	slli	a5,a5,0x5
    80203530:	00f687b3          	add	a5,a3,a5
    80203534:	00400713          	li	a4,4
    80203538:	04e7a823          	sw	a4,80(a5)
    8020353c:	fec42783          	lw	a5,-20(s0)
    80203540:	0017879b          	addiw	a5,a5,1
    80203544:	fef42623          	sw	a5,-20(s0)
    80203548:	fec42783          	lw	a5,-20(s0)
    8020354c:	0007871b          	sext.w	a4,a5
    80203550:	00f00793          	li	a5,15
    80203554:	fce7d0e3          	bge	a5,a4,80203514 <init_pcb+0x18>
    80203558:	84018793          	addi	a5,gp,-1984 # 802068f0 <current_running>
    8020355c:	00003717          	auipc	a4,0x3
    80203560:	1e470713          	addi	a4,a4,484 # 80206740 <pid0_pcb>
    80203564:	00e7b023          	sd	a4,0(a5)
    80203568:	00003797          	auipc	a5,0x3
    8020356c:	1d878793          	addi	a5,a5,472 # 80206740 <pid0_pcb>
    80203570:	00100713          	li	a4,1
    80203574:	04e7a823          	sw	a4,80(a5)
    80203578:	00100613          	li	a2,1
    8020357c:	00000593          	li	a1,0
    80203580:	00003517          	auipc	a0,0x3
    80203584:	1a050513          	addi	a0,a0,416 # 80206720 <dasics_task>
    80203588:	dcdfe0ef          	jal	ra,80202354 <do_spawn>
    8020358c:	00000013          	nop
    80203590:	01813083          	ld	ra,24(sp)
    80203594:	01013403          	ld	s0,16(sp)
    80203598:	02010113          	addi	sp,sp,32
    8020359c:	00008067          	ret

00000000802035a0 <init_syscall>:
    802035a0:	ff010113          	addi	sp,sp,-16
    802035a4:	00813423          	sd	s0,8(sp)
    802035a8:	01010413          	addi	s0,sp,16
    802035ac:	00004797          	auipc	a5,0x4
    802035b0:	10478793          	addi	a5,a5,260 # 802076b0 <syscall>
    802035b4:	fffff717          	auipc	a4,0xfffff
    802035b8:	da070713          	addi	a4,a4,-608 # 80202354 <do_spawn>
    802035bc:	00e7b023          	sd	a4,0(a5)
    802035c0:	00004797          	auipc	a5,0x4
    802035c4:	0f078793          	addi	a5,a5,240 # 802076b0 <syscall>
    802035c8:	fffff717          	auipc	a4,0xfffff
    802035cc:	d5470713          	addi	a4,a4,-684 # 8020231c <do_exit>
    802035d0:	00e7b423          	sd	a4,8(a5)
    802035d4:	00004797          	auipc	a5,0x4
    802035d8:	0dc78793          	addi	a5,a5,220 # 802076b0 <syscall>
    802035dc:	ffffe717          	auipc	a4,0xffffe
    802035e0:	73870713          	addi	a4,a4,1848 # 80201d14 <do_sleep>
    802035e4:	00e7b823          	sd	a4,16(a5)
    802035e8:	00004797          	auipc	a5,0x4
    802035ec:	0c878793          	addi	a5,a5,200 # 802076b0 <syscall>
    802035f0:	ffffe717          	auipc	a4,0xffffe
    802035f4:	58870713          	addi	a4,a4,1416 # 80201b78 <do_scheduler>
    802035f8:	02e7bc23          	sd	a4,56(a5)
    802035fc:	00004797          	auipc	a5,0x4
    80203600:	0b478793          	addi	a5,a5,180 # 802076b0 <syscall>
    80203604:	00000717          	auipc	a4,0x0
    80203608:	c6870713          	addi	a4,a4,-920 # 8020326c <futex_wait>
    8020360c:	04e7b823          	sd	a4,80(a5)
    80203610:	00004797          	auipc	a5,0x4
    80203614:	0a078793          	addi	a5,a5,160 # 802076b0 <syscall>
    80203618:	00000717          	auipc	a4,0x0
    8020361c:	cec70713          	addi	a4,a4,-788 # 80203304 <futex_wakeup>
    80203620:	04e7bc23          	sd	a4,88(a5)
    80203624:	00004797          	auipc	a5,0x4
    80203628:	08c78793          	addi	a5,a5,140 # 802076b0 <syscall>
    8020362c:	00002717          	auipc	a4,0x2
    80203630:	d7c70713          	addi	a4,a4,-644 # 802053a8 <screen_move_cursor>
    80203634:	0ae7b823          	sd	a4,176(a5)
    80203638:	00004797          	auipc	a5,0x4
    8020363c:	07878793          	addi	a5,a5,120 # 802076b0 <syscall>
    80203640:	00002717          	auipc	a4,0x2
    80203644:	b1470713          	addi	a4,a4,-1260 # 80205154 <screen_reflush>
    80203648:	0ae7bc23          	sd	a4,184(a5)
    8020364c:	00004797          	auipc	a5,0x4
    80203650:	06478793          	addi	a5,a5,100 # 802076b0 <syscall>
    80203654:	ffffd717          	auipc	a4,0xffffd
    80203658:	68870713          	addi	a4,a4,1672 # 80200cdc <port_write>
    8020365c:	0ae7b023          	sd	a4,160(a5)
    80203660:	00004797          	auipc	a5,0x4
    80203664:	05078793          	addi	a5,a5,80 # 802076b0 <syscall>
    80203668:	fffff717          	auipc	a4,0xfffff
    8020366c:	26c70713          	addi	a4,a4,620 # 802028d4 <get_time_base>
    80203670:	0ee7b823          	sd	a4,240(a5)
    80203674:	00004797          	auipc	a5,0x4
    80203678:	03c78793          	addi	a5,a5,60 # 802076b0 <syscall>
    8020367c:	fffff717          	auipc	a4,0xfffff
    80203680:	1e870713          	addi	a4,a4,488 # 80202864 <get_ticks>
    80203684:	0ee7bc23          	sd	a4,248(a5)
    80203688:	00000013          	nop
    8020368c:	00813403          	ld	s0,8(sp)
    80203690:	01010113          	addi	sp,sp,16
    80203694:	00008067          	ret

0000000080203698 <init_dasics>:
    80203698:	ff010113          	addi	sp,sp,-16
    8020369c:	00113423          	sd	ra,8(sp)
    802036a0:	00813023          	sd	s0,0(sp)
    802036a4:	01010413          	addi	s0,sp,16
    802036a8:	ffffd797          	auipc	a5,0xffffd
    802036ac:	95878793          	addi	a5,a5,-1704 # 80200000 <_start>
    802036b0:	00001717          	auipc	a4,0x1
    802036b4:	56070713          	addi	a4,a4,1376 # 80204c10 <__UMAIN_TEXT_END__>
    802036b8:	00070593          	mv	a1,a4
    802036bc:	00078513          	mv	a0,a5
    802036c0:	db9ff0ef          	jal	ra,80203478 <sbi_modify_smain_bound>
    802036c4:	00050793          	mv	a5,a0
    802036c8:	00078e63          	beqz	a5,802036e4 <init_dasics+0x4c>
    802036cc:	00003617          	auipc	a2,0x3
    802036d0:	04460613          	addi	a2,a2,68 # 80206710 <__FUNCTION__.0>
    802036d4:	04800593          	li	a1,72
    802036d8:	00003517          	auipc	a0,0x3
    802036dc:	f8050513          	addi	a0,a0,-128 # 80206658 <__FUNCTION__.0+0x60>
    802036e0:	dd9ff0ef          	jal	ra,802034b8 <_panic>
    802036e4:	00003797          	auipc	a5,0x3
    802036e8:	85478793          	addi	a5,a5,-1964 # 80205f38 <__RODATA_BEGIN__>
    802036ec:	00003717          	auipc	a4,0x3
    802036f0:	03070713          	addi	a4,a4,48 # 8020671c <__RODATA_END__>
    802036f4:	00070613          	mv	a2,a4
    802036f8:	00078593          	mv	a1,a5
    802036fc:	00a00513          	li	a0,10
    80203700:	338000ef          	jal	ra,80203a38 <dasics_libcfg_kalloc>
    80203704:	00050793          	mv	a5,a0
    80203708:	00078e63          	beqz	a5,80203724 <init_dasics+0x8c>
    8020370c:	00003617          	auipc	a2,0x3
    80203710:	00460613          	addi	a2,a2,4 # 80206710 <__FUNCTION__.0>
    80203714:	04c00593          	li	a1,76
    80203718:	00003517          	auipc	a0,0x3
    8020371c:	f4050513          	addi	a0,a0,-192 # 80206658 <__FUNCTION__.0+0x60>
    80203720:	d99ff0ef          	jal	ra,802034b8 <_panic>
    80203724:	00001797          	auipc	a5,0x1
    80203728:	59c78793          	addi	a5,a5,1436 # 80204cc0 <kmemcpy>
    8020372c:	00002717          	auipc	a4,0x2
    80203730:	e5470713          	addi	a4,a4,-428 # 80205580 <dasics_ulib2>
    80203734:	00070593          	mv	a1,a4
    80203738:	00078513          	mv	a0,a5
    8020373c:	6a0000ef          	jal	ra,80203ddc <dasics_jumpcfg_kalloc>
    80203740:	00050793          	mv	a5,a0
    80203744:	00078e63          	beqz	a5,80203760 <init_dasics+0xc8>
    80203748:	00003617          	auipc	a2,0x3
    8020374c:	fc860613          	addi	a2,a2,-56 # 80206710 <__FUNCTION__.0>
    80203750:	05000593          	li	a1,80
    80203754:	00003517          	auipc	a0,0x3
    80203758:	f0450513          	addi	a0,a0,-252 # 80206658 <__FUNCTION__.0+0x60>
    8020375c:	d5dff0ef          	jal	ra,802034b8 <_panic>
    80203760:	00004797          	auipc	a5,0x4
    80203764:	28478793          	addi	a5,a5,644 # 802079e4 <__SFREEZONE_DATA_BEGIN__>
    80203768:	00006717          	auipc	a4,0x6
    8020376c:	1c870713          	addi	a4,a4,456 # 80209930 <secret>
    80203770:	00070613          	mv	a2,a4
    80203774:	00078593          	mv	a1,a5
    80203778:	00b00513          	li	a0,11
    8020377c:	2bc000ef          	jal	ra,80203a38 <dasics_libcfg_kalloc>
    80203780:	00050793          	mv	a5,a0
    80203784:	00078713          	mv	a4,a5
    80203788:	00100793          	li	a5,1
    8020378c:	00f70e63          	beq	a4,a5,802037a8 <init_dasics+0x110>
    80203790:	00003617          	auipc	a2,0x3
    80203794:	f8060613          	addi	a2,a2,-128 # 80206710 <__FUNCTION__.0>
    80203798:	05400593          	li	a1,84
    8020379c:	00003517          	auipc	a0,0x3
    802037a0:	ebc50513          	addi	a0,a0,-324 # 80206658 <__FUNCTION__.0+0x60>
    802037a4:	d15ff0ef          	jal	ra,802034b8 <_panic>
    802037a8:	000807b7          	lui	a5,0x80
    802037ac:	50178793          	addi	a5,a5,1281 # 80501 <_start-0x8017faff>
    802037b0:	00c79613          	slli	a2,a5,0xc
    802037b4:	008057b7          	lui	a5,0x805
    802037b8:	00879593          	slli	a1,a5,0x8
    802037bc:	00b00513          	li	a0,11
    802037c0:	278000ef          	jal	ra,80203a38 <dasics_libcfg_kalloc>
    802037c4:	00050793          	mv	a5,a0
    802037c8:	00078713          	mv	a4,a5
    802037cc:	00200793          	li	a5,2
    802037d0:	00f70e63          	beq	a4,a5,802037ec <init_dasics+0x154>
    802037d4:	00003617          	auipc	a2,0x3
    802037d8:	f3c60613          	addi	a2,a2,-196 # 80206710 <__FUNCTION__.0>
    802037dc:	05700593          	li	a1,87
    802037e0:	00003517          	auipc	a0,0x3
    802037e4:	e7850513          	addi	a0,a0,-392 # 80206658 <__FUNCTION__.0+0x60>
    802037e8:	cd1ff0ef          	jal	ra,802034b8 <_panic>
    802037ec:	00000797          	auipc	a5,0x0
    802037f0:	0e878793          	addi	a5,a5,232 # 802038d4 <dasics_smaincall>
    802037f4:	00078513          	mv	a0,a5
    802037f8:	0b4000ef          	jal	ra,802038ac <dasics_init_smaincall>
    802037fc:	00000013          	nop
    80203800:	00813083          	ld	ra,8(sp)
    80203804:	00013403          	ld	s0,0(sp)
    80203808:	01010113          	addi	sp,sp,16
    8020380c:	00008067          	ret

0000000080203810 <main>:
    80203810:	ff010113          	addi	sp,sp,-16
    80203814:	00113423          	sd	ra,8(sp)
    80203818:	00813023          	sd	s0,0(sp)
    8020381c:	01010413          	addi	s0,sp,16
    80203820:	cddff0ef          	jal	ra,802034fc <init_pcb>
    80203824:	00003517          	auipc	a0,0x3
    80203828:	e4450513          	addi	a0,a0,-444 # 80206668 <__FUNCTION__.0+0x70>
    8020382c:	d65fd0ef          	jal	ra,80201590 <printk>
    80203830:	e69ff0ef          	jal	ra,80203698 <init_dasics>
    80203834:	00003517          	auipc	a0,0x3
    80203838:	e5450513          	addi	a0,a0,-428 # 80206688 <__FUNCTION__.0+0x90>
    8020383c:	d55fd0ef          	jal	ra,80201590 <printk>
    80203840:	829ff0ef          	jal	ra,80203068 <init_system_futex>
    80203844:	b50ff0ef          	jal	ra,80202b94 <init_exception>
    80203848:	00003517          	auipc	a0,0x3
    8020384c:	e7850513          	addi	a0,a0,-392 # 802066c0 <__FUNCTION__.0+0xc8>
    80203850:	d41fd0ef          	jal	ra,80201590 <printk>
    80203854:	d4dff0ef          	jal	ra,802035a0 <init_syscall>
    80203858:	00003517          	auipc	a0,0x3
    8020385c:	e9850513          	addi	a0,a0,-360 # 802066f0 <__FUNCTION__.0+0xf8>
    80203860:	d31fd0ef          	jal	ra,80201590 <printk>
    80203864:	b14fe0ef          	jal	ra,80201b78 <do_scheduler>
    80203868:	0000006f          	j	80203868 <main+0x58>

000000008020386c <dasics_init_umain_bound>:
    8020386c:	fd010113          	addi	sp,sp,-48
    80203870:	02813423          	sd	s0,40(sp)
    80203874:	03010413          	addi	s0,sp,48
    80203878:	fea43423          	sd	a0,-24(s0)
    8020387c:	feb43023          	sd	a1,-32(s0)
    80203880:	fcc43c23          	sd	a2,-40(s0)
    80203884:	fe843783          	ld	a5,-24(s0)
    80203888:	9e079073          	csrw	0x9e0,a5
    8020388c:	fe043783          	ld	a5,-32(s0)
    80203890:	9e379073          	csrw	0x9e3,a5
    80203894:	fd843783          	ld	a5,-40(s0)
    80203898:	9e279073          	csrw	0x9e2,a5
    8020389c:	00000013          	nop
    802038a0:	02813403          	ld	s0,40(sp)
    802038a4:	03010113          	addi	sp,sp,48
    802038a8:	00008067          	ret

00000000802038ac <dasics_init_smaincall>:
    802038ac:	fe010113          	addi	sp,sp,-32
    802038b0:	00813c23          	sd	s0,24(sp)
    802038b4:	02010413          	addi	s0,sp,32
    802038b8:	fea43423          	sd	a0,-24(s0)
    802038bc:	fe843783          	ld	a5,-24(s0)
    802038c0:	8b079073          	csrw	0x8b0,a5
    802038c4:	00000013          	nop
    802038c8:	01813403          	ld	s0,24(sp)
    802038cc:	02010113          	addi	sp,sp,32
    802038d0:	00008067          	ret

00000000802038d4 <dasics_smaincall>:
    802038d4:	fa010113          	addi	sp,sp,-96
    802038d8:	04113c23          	sd	ra,88(sp)
    802038dc:	04813823          	sd	s0,80(sp)
    802038e0:	06010413          	addi	s0,sp,96
    802038e4:	00050793          	mv	a5,a0
    802038e8:	fab43823          	sd	a1,-80(s0)
    802038ec:	fac43423          	sd	a2,-88(s0)
    802038f0:	fad43023          	sd	a3,-96(s0)
    802038f4:	faf42e23          	sw	a5,-68(s0)
    802038f8:	8b1027f3          	csrr	a5,0x8b1
    802038fc:	fef43023          	sd	a5,-32(s0)
    80203900:	fe043783          	ld	a5,-32(s0)
    80203904:	fcf43c23          	sd	a5,-40(s0)
    80203908:	8b2027f3          	csrr	a5,0x8b2
    8020390c:	fcf43823          	sd	a5,-48(s0)
    80203910:	fd043783          	ld	a5,-48(s0)
    80203914:	fcf43423          	sd	a5,-56(s0)
    80203918:	fe043423          	sd	zero,-24(s0)
    8020391c:	fbc42783          	lw	a5,-68(s0)
    80203920:	0007871b          	sext.w	a4,a5
    80203924:	00600793          	li	a5,6
    80203928:	0ae7ec63          	bltu	a5,a4,802039e0 <dasics_smaincall+0x10c>
    8020392c:	fbc46783          	lwu	a5,-68(s0)
    80203930:	00279713          	slli	a4,a5,0x2
    80203934:	00003797          	auipc	a5,0x3
    80203938:	8d478793          	addi	a5,a5,-1836 # 80206208 <__RODATA_BEGIN__+0x2d0>
    8020393c:	00f707b3          	add	a5,a4,a5
    80203940:	0007a783          	lw	a5,0(a5)
    80203944:	0007871b          	sext.w	a4,a5
    80203948:	00003797          	auipc	a5,0x3
    8020394c:	8c078793          	addi	a5,a5,-1856 # 80206208 <__RODATA_BEGIN__+0x2d0>
    80203950:	00f707b3          	add	a5,a4,a5
    80203954:	00078067          	jr	a5
    80203958:	f50fc0ef          	jal	ra,802000a8 <disable_preempt>
    8020395c:	09c0006f          	j	802039f8 <dasics_smaincall+0x124>
    80203960:	f20fc0ef          	jal	ra,80200080 <enable_preempt>
    80203964:	0940006f          	j	802039f8 <dasics_smaincall+0x124>
    80203968:	fb043783          	ld	a5,-80(s0)
    8020396c:	00078513          	mv	a0,a5
    80203970:	b6cfd0ef          	jal	ra,80200cdc <port_write>
    80203974:	0840006f          	j	802039f8 <dasics_smaincall+0x124>
    80203978:	fb043783          	ld	a5,-80(s0)
    8020397c:	0ff7f793          	zext.b	a5,a5
    80203980:	00078513          	mv	a0,a5
    80203984:	b1cfd0ef          	jal	ra,80200ca0 <port_write_ch>
    80203988:	0700006f          	j	802039f8 <dasics_smaincall+0x124>
    8020398c:	84018793          	addi	a5,gp,-1984 # 802068f0 <current_running>
    80203990:	0007b783          	ld	a5,0(a5)
    80203994:	0587a783          	lw	a5,88(a5)
    80203998:	fef43423          	sd	a5,-24(s0)
    8020399c:	05c0006f          	j	802039f8 <dasics_smaincall+0x124>
    802039a0:	84018793          	addi	a5,gp,-1984 # 802068f0 <current_running>
    802039a4:	0007b783          	ld	a5,0(a5)
    802039a8:	05c7a783          	lw	a5,92(a5)
    802039ac:	fef43423          	sd	a5,-24(s0)
    802039b0:	0480006f          	j	802039f8 <dasics_smaincall+0x124>
    802039b4:	84018793          	addi	a5,gp,-1984 # 802068f0 <current_running>
    802039b8:	0007b783          	ld	a5,0(a5)
    802039bc:	fb043703          	ld	a4,-80(s0)
    802039c0:	0007071b          	sext.w	a4,a4
    802039c4:	04e7ac23          	sw	a4,88(a5)
    802039c8:	84018793          	addi	a5,gp,-1984 # 802068f0 <current_running>
    802039cc:	0007b783          	ld	a5,0(a5)
    802039d0:	fa843703          	ld	a4,-88(s0)
    802039d4:	0007071b          	sext.w	a4,a4
    802039d8:	04e7ae23          	sw	a4,92(a5)
    802039dc:	01c0006f          	j	802039f8 <dasics_smaincall+0x124>
    802039e0:	fbc42783          	lw	a5,-68(s0)
    802039e4:	00078593          	mv	a1,a5
    802039e8:	00002517          	auipc	a0,0x2
    802039ec:	7f850513          	addi	a0,a0,2040 # 802061e0 <__RODATA_BEGIN__+0x2a8>
    802039f0:	ba1fd0ef          	jal	ra,80201590 <printk>
    802039f4:	00000013          	nop
    802039f8:	fd843783          	ld	a5,-40(s0)
    802039fc:	8b179073          	csrw	0x8b1,a5
    80203a00:	fc843783          	ld	a5,-56(s0)
    80203a04:	8b279073          	csrw	0x8b2,a5
    80203a08:	00078513          	mv	a0,a5
    80203a0c:	05813083          	ld	ra,88(sp)
    80203a10:	05013403          	ld	s0,80(sp)
    80203a14:	06010113          	addi	sp,sp,96
    80203a18:	00008067          	ret
    80203a1c:	00000013          	nop
    80203a20:	fe843783          	ld	a5,-24(s0)
    80203a24:	00078513          	mv	a0,a5
    80203a28:	05813083          	ld	ra,88(sp)
    80203a2c:	05013403          	ld	s0,80(sp)
    80203a30:	06010113          	addi	sp,sp,96
    80203a34:	00008067          	ret

0000000080203a38 <dasics_libcfg_kalloc>:
    80203a38:	fa010113          	addi	sp,sp,-96
    80203a3c:	04813c23          	sd	s0,88(sp)
    80203a40:	06010413          	addi	s0,sp,96
    80203a44:	faa43c23          	sd	a0,-72(s0)
    80203a48:	fab43823          	sd	a1,-80(s0)
    80203a4c:	fac43423          	sd	a2,-88(s0)
    80203a50:	880027f3          	csrr	a5,0x880
    80203a54:	fef43023          	sd	a5,-32(s0)
    80203a58:	fe043783          	ld	a5,-32(s0)
    80203a5c:	fcf43c23          	sd	a5,-40(s0)
    80203a60:	01000793          	li	a5,16
    80203a64:	fcf42a23          	sw	a5,-44(s0)
    80203a68:	00400793          	li	a5,4
    80203a6c:	fcf42823          	sw	a5,-48(s0)
    80203a70:	fe042623          	sw	zero,-20(s0)
    80203a74:	2200006f          	j	80203c94 <dasics_libcfg_kalloc+0x25c>
    80203a78:	fec42703          	lw	a4,-20(s0)
    80203a7c:	fd042783          	lw	a5,-48(s0)
    80203a80:	02f707bb          	mulw	a5,a4,a5
    80203a84:	0007879b          	sext.w	a5,a5
    80203a88:	00078713          	mv	a4,a5
    80203a8c:	fd843783          	ld	a5,-40(s0)
    80203a90:	00e7d7b3          	srl	a5,a5,a4
    80203a94:	00f7f793          	andi	a5,a5,15
    80203a98:	fcf43423          	sd	a5,-56(s0)
    80203a9c:	fc843783          	ld	a5,-56(s0)
    80203aa0:	0087f793          	andi	a5,a5,8
    80203aa4:	1e079263          	bnez	a5,80203c88 <dasics_libcfg_kalloc+0x250>
    80203aa8:	fec42783          	lw	a5,-20(s0)
    80203aac:	0007871b          	sext.w	a4,a5
    80203ab0:	00e00793          	li	a5,14
    80203ab4:	14e7ee63          	bltu	a5,a4,80203c10 <dasics_libcfg_kalloc+0x1d8>
    80203ab8:	fec46783          	lwu	a5,-20(s0)
    80203abc:	00279713          	slli	a4,a5,0x2
    80203ac0:	00002797          	auipc	a5,0x2
    80203ac4:	76478793          	addi	a5,a5,1892 # 80206224 <__RODATA_BEGIN__+0x2ec>
    80203ac8:	00f707b3          	add	a5,a4,a5
    80203acc:	0007a783          	lw	a5,0(a5)
    80203ad0:	0007871b          	sext.w	a4,a5
    80203ad4:	00002797          	auipc	a5,0x2
    80203ad8:	75078793          	addi	a5,a5,1872 # 80206224 <__RODATA_BEGIN__+0x2ec>
    80203adc:	00f707b3          	add	a5,a4,a5
    80203ae0:	00078067          	jr	a5
    80203ae4:	fb043783          	ld	a5,-80(s0)
    80203ae8:	89079073          	csrw	0x890,a5
    80203aec:	fa843783          	ld	a5,-88(s0)
    80203af0:	89179073          	csrw	0x891,a5
    80203af4:	1300006f          	j	80203c24 <dasics_libcfg_kalloc+0x1ec>
    80203af8:	fb043783          	ld	a5,-80(s0)
    80203afc:	89279073          	csrw	0x892,a5
    80203b00:	fa843783          	ld	a5,-88(s0)
    80203b04:	89379073          	csrw	0x893,a5
    80203b08:	11c0006f          	j	80203c24 <dasics_libcfg_kalloc+0x1ec>
    80203b0c:	fb043783          	ld	a5,-80(s0)
    80203b10:	89479073          	csrw	0x894,a5
    80203b14:	fa843783          	ld	a5,-88(s0)
    80203b18:	89579073          	csrw	0x895,a5
    80203b1c:	1080006f          	j	80203c24 <dasics_libcfg_kalloc+0x1ec>
    80203b20:	fb043783          	ld	a5,-80(s0)
    80203b24:	89679073          	csrw	0x896,a5
    80203b28:	fa843783          	ld	a5,-88(s0)
    80203b2c:	89779073          	csrw	0x897,a5
    80203b30:	0f40006f          	j	80203c24 <dasics_libcfg_kalloc+0x1ec>
    80203b34:	fb043783          	ld	a5,-80(s0)
    80203b38:	89879073          	csrw	0x898,a5
    80203b3c:	fa843783          	ld	a5,-88(s0)
    80203b40:	89979073          	csrw	0x899,a5
    80203b44:	0e00006f          	j	80203c24 <dasics_libcfg_kalloc+0x1ec>
    80203b48:	fb043783          	ld	a5,-80(s0)
    80203b4c:	89a79073          	csrw	0x89a,a5
    80203b50:	fa843783          	ld	a5,-88(s0)
    80203b54:	89b79073          	csrw	0x89b,a5
    80203b58:	0cc0006f          	j	80203c24 <dasics_libcfg_kalloc+0x1ec>
    80203b5c:	fb043783          	ld	a5,-80(s0)
    80203b60:	89c79073          	csrw	0x89c,a5
    80203b64:	fa843783          	ld	a5,-88(s0)
    80203b68:	89d79073          	csrw	0x89d,a5
    80203b6c:	0b80006f          	j	80203c24 <dasics_libcfg_kalloc+0x1ec>
    80203b70:	fb043783          	ld	a5,-80(s0)
    80203b74:	89e79073          	csrw	0x89e,a5
    80203b78:	fa843783          	ld	a5,-88(s0)
    80203b7c:	89f79073          	csrw	0x89f,a5
    80203b80:	0a40006f          	j	80203c24 <dasics_libcfg_kalloc+0x1ec>
    80203b84:	fb043783          	ld	a5,-80(s0)
    80203b88:	8a079073          	csrw	0x8a0,a5
    80203b8c:	fa843783          	ld	a5,-88(s0)
    80203b90:	8a179073          	csrw	0x8a1,a5
    80203b94:	0900006f          	j	80203c24 <dasics_libcfg_kalloc+0x1ec>
    80203b98:	fb043783          	ld	a5,-80(s0)
    80203b9c:	8a279073          	csrw	0x8a2,a5
    80203ba0:	fa843783          	ld	a5,-88(s0)
    80203ba4:	8a379073          	csrw	0x8a3,a5
    80203ba8:	07c0006f          	j	80203c24 <dasics_libcfg_kalloc+0x1ec>
    80203bac:	fb043783          	ld	a5,-80(s0)
    80203bb0:	8a479073          	csrw	0x8a4,a5
    80203bb4:	fa843783          	ld	a5,-88(s0)
    80203bb8:	8a579073          	csrw	0x8a5,a5
    80203bbc:	0680006f          	j	80203c24 <dasics_libcfg_kalloc+0x1ec>
    80203bc0:	fb043783          	ld	a5,-80(s0)
    80203bc4:	8a679073          	csrw	0x8a6,a5
    80203bc8:	fa843783          	ld	a5,-88(s0)
    80203bcc:	8a779073          	csrw	0x8a7,a5
    80203bd0:	0540006f          	j	80203c24 <dasics_libcfg_kalloc+0x1ec>
    80203bd4:	fb043783          	ld	a5,-80(s0)
    80203bd8:	8a879073          	csrw	0x8a8,a5
    80203bdc:	fa843783          	ld	a5,-88(s0)
    80203be0:	8a979073          	csrw	0x8a9,a5
    80203be4:	0400006f          	j	80203c24 <dasics_libcfg_kalloc+0x1ec>
    80203be8:	fb043783          	ld	a5,-80(s0)
    80203bec:	8aa79073          	csrw	0x8aa,a5
    80203bf0:	fa843783          	ld	a5,-88(s0)
    80203bf4:	8ab79073          	csrw	0x8ab,a5
    80203bf8:	02c0006f          	j	80203c24 <dasics_libcfg_kalloc+0x1ec>
    80203bfc:	fb043783          	ld	a5,-80(s0)
    80203c00:	8ac79073          	csrw	0x8ac,a5
    80203c04:	fa843783          	ld	a5,-88(s0)
    80203c08:	8ad79073          	csrw	0x8ad,a5
    80203c0c:	0180006f          	j	80203c24 <dasics_libcfg_kalloc+0x1ec>
    80203c10:	fb043783          	ld	a5,-80(s0)
    80203c14:	8ae79073          	csrw	0x8ae,a5
    80203c18:	fa843783          	ld	a5,-88(s0)
    80203c1c:	8af79073          	csrw	0x8af,a5
    80203c20:	00000013          	nop
    80203c24:	fec42703          	lw	a4,-20(s0)
    80203c28:	fd042783          	lw	a5,-48(s0)
    80203c2c:	02f707bb          	mulw	a5,a4,a5
    80203c30:	0007879b          	sext.w	a5,a5
    80203c34:	00078713          	mv	a4,a5
    80203c38:	00f00793          	li	a5,15
    80203c3c:	00e797b3          	sll	a5,a5,a4
    80203c40:	fff7c793          	not	a5,a5
    80203c44:	fd843703          	ld	a4,-40(s0)
    80203c48:	00f777b3          	and	a5,a4,a5
    80203c4c:	fcf43c23          	sd	a5,-40(s0)
    80203c50:	fb843783          	ld	a5,-72(s0)
    80203c54:	00f7f793          	andi	a5,a5,15
    80203c58:	fec42683          	lw	a3,-20(s0)
    80203c5c:	fd042703          	lw	a4,-48(s0)
    80203c60:	02e6873b          	mulw	a4,a3,a4
    80203c64:	0007071b          	sext.w	a4,a4
    80203c68:	00e797b3          	sll	a5,a5,a4
    80203c6c:	fd843703          	ld	a4,-40(s0)
    80203c70:	00f767b3          	or	a5,a4,a5
    80203c74:	fcf43c23          	sd	a5,-40(s0)
    80203c78:	fd843783          	ld	a5,-40(s0)
    80203c7c:	88079073          	csrw	0x880,a5
    80203c80:	fec42783          	lw	a5,-20(s0)
    80203c84:	0280006f          	j	80203cac <dasics_libcfg_kalloc+0x274>
    80203c88:	fec42783          	lw	a5,-20(s0)
    80203c8c:	0017879b          	addiw	a5,a5,1
    80203c90:	fef42623          	sw	a5,-20(s0)
    80203c94:	fec42703          	lw	a4,-20(s0)
    80203c98:	fd442783          	lw	a5,-44(s0)
    80203c9c:	0007071b          	sext.w	a4,a4
    80203ca0:	0007879b          	sext.w	a5,a5
    80203ca4:	dcf74ae3          	blt	a4,a5,80203a78 <dasics_libcfg_kalloc+0x40>
    80203ca8:	fff00793          	li	a5,-1
    80203cac:	00078513          	mv	a0,a5
    80203cb0:	05813403          	ld	s0,88(sp)
    80203cb4:	06010113          	addi	sp,sp,96
    80203cb8:	00008067          	ret

0000000080203cbc <dasics_libcfg_kfree>:
    80203cbc:	fc010113          	addi	sp,sp,-64
    80203cc0:	02813c23          	sd	s0,56(sp)
    80203cc4:	04010413          	addi	s0,sp,64
    80203cc8:	00050793          	mv	a5,a0
    80203ccc:	fcf42623          	sw	a5,-52(s0)
    80203cd0:	fcc42783          	lw	a5,-52(s0)
    80203cd4:	0007879b          	sext.w	a5,a5
    80203cd8:	0007ca63          	bltz	a5,80203cec <dasics_libcfg_kfree+0x30>
    80203cdc:	fcc42783          	lw	a5,-52(s0)
    80203ce0:	0007871b          	sext.w	a4,a5
    80203ce4:	00f00793          	li	a5,15
    80203ce8:	00e7d663          	bge	a5,a4,80203cf4 <dasics_libcfg_kfree+0x38>
    80203cec:	fff00793          	li	a5,-1
    80203cf0:	0540006f          	j	80203d44 <dasics_libcfg_kfree+0x88>
    80203cf4:	00400793          	li	a5,4
    80203cf8:	fef42623          	sw	a5,-20(s0)
    80203cfc:	880027f3          	csrr	a5,0x880
    80203d00:	fef43023          	sd	a5,-32(s0)
    80203d04:	fe043783          	ld	a5,-32(s0)
    80203d08:	fcf43c23          	sd	a5,-40(s0)
    80203d0c:	fcc42703          	lw	a4,-52(s0)
    80203d10:	fec42783          	lw	a5,-20(s0)
    80203d14:	02f707bb          	mulw	a5,a4,a5
    80203d18:	0007879b          	sext.w	a5,a5
    80203d1c:	00078713          	mv	a4,a5
    80203d20:	00800793          	li	a5,8
    80203d24:	00e797b3          	sll	a5,a5,a4
    80203d28:	fff7c793          	not	a5,a5
    80203d2c:	fd843703          	ld	a4,-40(s0)
    80203d30:	00f777b3          	and	a5,a4,a5
    80203d34:	fcf43c23          	sd	a5,-40(s0)
    80203d38:	fd843783          	ld	a5,-40(s0)
    80203d3c:	88079073          	csrw	0x880,a5
    80203d40:	00000793          	li	a5,0
    80203d44:	00078513          	mv	a0,a5
    80203d48:	03813403          	ld	s0,56(sp)
    80203d4c:	04010113          	addi	sp,sp,64
    80203d50:	00008067          	ret

0000000080203d54 <dasics_libcfg_kget>:
    80203d54:	fc010113          	addi	sp,sp,-64
    80203d58:	02813c23          	sd	s0,56(sp)
    80203d5c:	04010413          	addi	s0,sp,64
    80203d60:	00050793          	mv	a5,a0
    80203d64:	fcf42623          	sw	a5,-52(s0)
    80203d68:	fcc42783          	lw	a5,-52(s0)
    80203d6c:	0007879b          	sext.w	a5,a5
    80203d70:	0007ca63          	bltz	a5,80203d84 <dasics_libcfg_kget+0x30>
    80203d74:	fcc42783          	lw	a5,-52(s0)
    80203d78:	0007871b          	sext.w	a4,a5
    80203d7c:	00f00793          	li	a5,15
    80203d80:	00e7d663          	bge	a5,a4,80203d8c <dasics_libcfg_kget+0x38>
    80203d84:	fff00793          	li	a5,-1
    80203d88:	0440006f          	j	80203dcc <dasics_libcfg_kget+0x78>
    80203d8c:	00400793          	li	a5,4
    80203d90:	fef42623          	sw	a5,-20(s0)
    80203d94:	880027f3          	csrr	a5,0x880
    80203d98:	fef43023          	sd	a5,-32(s0)
    80203d9c:	fe043783          	ld	a5,-32(s0)
    80203da0:	fcf43c23          	sd	a5,-40(s0)
    80203da4:	fcc42703          	lw	a4,-52(s0)
    80203da8:	fec42783          	lw	a5,-20(s0)
    80203dac:	02f707bb          	mulw	a5,a4,a5
    80203db0:	0007879b          	sext.w	a5,a5
    80203db4:	00078713          	mv	a4,a5
    80203db8:	fd843783          	ld	a5,-40(s0)
    80203dbc:	00e7d7b3          	srl	a5,a5,a4
    80203dc0:	0007879b          	sext.w	a5,a5
    80203dc4:	00f7f793          	andi	a5,a5,15
    80203dc8:	0007879b          	sext.w	a5,a5
    80203dcc:	00078513          	mv	a0,a5
    80203dd0:	03813403          	ld	s0,56(sp)
    80203dd4:	04010113          	addi	sp,sp,64
    80203dd8:	00008067          	ret

0000000080203ddc <dasics_jumpcfg_kalloc>:
    80203ddc:	fb010113          	addi	sp,sp,-80
    80203de0:	04813423          	sd	s0,72(sp)
    80203de4:	05010413          	addi	s0,sp,80
    80203de8:	faa43c23          	sd	a0,-72(s0)
    80203dec:	fab43823          	sd	a1,-80(s0)
    80203df0:	8c8027f3          	csrr	a5,0x8c8
    80203df4:	fef43023          	sd	a5,-32(s0)
    80203df8:	fe043783          	ld	a5,-32(s0)
    80203dfc:	fcf43c23          	sd	a5,-40(s0)
    80203e00:	00400793          	li	a5,4
    80203e04:	fcf42a23          	sw	a5,-44(s0)
    80203e08:	01000793          	li	a5,16
    80203e0c:	fcf42823          	sw	a5,-48(s0)
    80203e10:	fe042623          	sw	zero,-20(s0)
    80203e14:	1640006f          	j	80203f78 <dasics_jumpcfg_kalloc+0x19c>
    80203e18:	fec42703          	lw	a4,-20(s0)
    80203e1c:	fd042783          	lw	a5,-48(s0)
    80203e20:	02f707bb          	mulw	a5,a4,a5
    80203e24:	0007879b          	sext.w	a5,a5
    80203e28:	00078713          	mv	a4,a5
    80203e2c:	fd843783          	ld	a5,-40(s0)
    80203e30:	00e7d733          	srl	a4,a5,a4
    80203e34:	000107b7          	lui	a5,0x10
    80203e38:	fff78793          	addi	a5,a5,-1 # ffff <_start-0x801f0001>
    80203e3c:	00f777b3          	and	a5,a4,a5
    80203e40:	fcf43423          	sd	a5,-56(s0)
    80203e44:	fc843783          	ld	a5,-56(s0)
    80203e48:	0017f793          	andi	a5,a5,1
    80203e4c:	12079063          	bnez	a5,80203f6c <dasics_jumpcfg_kalloc+0x190>
    80203e50:	fec42783          	lw	a5,-20(s0)
    80203e54:	0007871b          	sext.w	a4,a5
    80203e58:	00300793          	li	a5,3
    80203e5c:	08f70863          	beq	a4,a5,80203eec <dasics_jumpcfg_kalloc+0x110>
    80203e60:	fec42783          	lw	a5,-20(s0)
    80203e64:	0007871b          	sext.w	a4,a5
    80203e68:	00300793          	li	a5,3
    80203e6c:	08e7ca63          	blt	a5,a4,80203f00 <dasics_jumpcfg_kalloc+0x124>
    80203e70:	fec42783          	lw	a5,-20(s0)
    80203e74:	0007871b          	sext.w	a4,a5
    80203e78:	00200793          	li	a5,2
    80203e7c:	04f70e63          	beq	a4,a5,80203ed8 <dasics_jumpcfg_kalloc+0xfc>
    80203e80:	fec42783          	lw	a5,-20(s0)
    80203e84:	0007871b          	sext.w	a4,a5
    80203e88:	00200793          	li	a5,2
    80203e8c:	06e7ca63          	blt	a5,a4,80203f00 <dasics_jumpcfg_kalloc+0x124>
    80203e90:	fec42783          	lw	a5,-20(s0)
    80203e94:	0007879b          	sext.w	a5,a5
    80203e98:	00078c63          	beqz	a5,80203eb0 <dasics_jumpcfg_kalloc+0xd4>
    80203e9c:	fec42783          	lw	a5,-20(s0)
    80203ea0:	0007871b          	sext.w	a4,a5
    80203ea4:	00100793          	li	a5,1
    80203ea8:	00f70e63          	beq	a4,a5,80203ec4 <dasics_jumpcfg_kalloc+0xe8>
    80203eac:	0540006f          	j	80203f00 <dasics_jumpcfg_kalloc+0x124>
    80203eb0:	fb843783          	ld	a5,-72(s0)
    80203eb4:	8c079073          	csrw	0x8c0,a5
    80203eb8:	fb043783          	ld	a5,-80(s0)
    80203ebc:	8c179073          	csrw	0x8c1,a5
    80203ec0:	0440006f          	j	80203f04 <dasics_jumpcfg_kalloc+0x128>
    80203ec4:	fb843783          	ld	a5,-72(s0)
    80203ec8:	8c279073          	csrw	0x8c2,a5
    80203ecc:	fb043783          	ld	a5,-80(s0)
    80203ed0:	8c379073          	csrw	0x8c3,a5
    80203ed4:	0300006f          	j	80203f04 <dasics_jumpcfg_kalloc+0x128>
    80203ed8:	fb843783          	ld	a5,-72(s0)
    80203edc:	8c479073          	csrw	0x8c4,a5
    80203ee0:	fb043783          	ld	a5,-80(s0)
    80203ee4:	8c579073          	csrw	0x8c5,a5
    80203ee8:	01c0006f          	j	80203f04 <dasics_jumpcfg_kalloc+0x128>
    80203eec:	fb843783          	ld	a5,-72(s0)
    80203ef0:	8c679073          	csrw	0x8c6,a5
    80203ef4:	fb043783          	ld	a5,-80(s0)
    80203ef8:	8c779073          	csrw	0x8c7,a5
    80203efc:	0080006f          	j	80203f04 <dasics_jumpcfg_kalloc+0x128>
    80203f00:	00000013          	nop
    80203f04:	fec42703          	lw	a4,-20(s0)
    80203f08:	fd042783          	lw	a5,-48(s0)
    80203f0c:	02f707bb          	mulw	a5,a4,a5
    80203f10:	0007879b          	sext.w	a5,a5
    80203f14:	00078713          	mv	a4,a5
    80203f18:	000107b7          	lui	a5,0x10
    80203f1c:	fff78793          	addi	a5,a5,-1 # ffff <_start-0x801f0001>
    80203f20:	00e797b3          	sll	a5,a5,a4
    80203f24:	fff7c793          	not	a5,a5
    80203f28:	fd843703          	ld	a4,-40(s0)
    80203f2c:	00f777b3          	and	a5,a4,a5
    80203f30:	fcf43c23          	sd	a5,-40(s0)
    80203f34:	fec42703          	lw	a4,-20(s0)
    80203f38:	fd042783          	lw	a5,-48(s0)
    80203f3c:	02f707bb          	mulw	a5,a4,a5
    80203f40:	0007879b          	sext.w	a5,a5
    80203f44:	00078713          	mv	a4,a5
    80203f48:	00100793          	li	a5,1
    80203f4c:	00e797b3          	sll	a5,a5,a4
    80203f50:	fd843703          	ld	a4,-40(s0)
    80203f54:	00f767b3          	or	a5,a4,a5
    80203f58:	fcf43c23          	sd	a5,-40(s0)
    80203f5c:	fd843783          	ld	a5,-40(s0)
    80203f60:	8c879073          	csrw	0x8c8,a5
    80203f64:	fec42783          	lw	a5,-20(s0)
    80203f68:	0280006f          	j	80203f90 <dasics_jumpcfg_kalloc+0x1b4>
    80203f6c:	fec42783          	lw	a5,-20(s0)
    80203f70:	0017879b          	addiw	a5,a5,1
    80203f74:	fef42623          	sw	a5,-20(s0)
    80203f78:	fec42703          	lw	a4,-20(s0)
    80203f7c:	fd442783          	lw	a5,-44(s0)
    80203f80:	0007071b          	sext.w	a4,a4
    80203f84:	0007879b          	sext.w	a5,a5
    80203f88:	e8f748e3          	blt	a4,a5,80203e18 <dasics_jumpcfg_kalloc+0x3c>
    80203f8c:	fff00793          	li	a5,-1
    80203f90:	00078513          	mv	a0,a5
    80203f94:	04813403          	ld	s0,72(sp)
    80203f98:	05010113          	addi	sp,sp,80
    80203f9c:	00008067          	ret

0000000080203fa0 <dasics_jumpcfg_kfree>:
    80203fa0:	fc010113          	addi	sp,sp,-64
    80203fa4:	02813c23          	sd	s0,56(sp)
    80203fa8:	04010413          	addi	s0,sp,64
    80203fac:	00050793          	mv	a5,a0
    80203fb0:	fcf42623          	sw	a5,-52(s0)
    80203fb4:	fcc42783          	lw	a5,-52(s0)
    80203fb8:	0007879b          	sext.w	a5,a5
    80203fbc:	0007ca63          	bltz	a5,80203fd0 <dasics_jumpcfg_kfree+0x30>
    80203fc0:	fcc42783          	lw	a5,-52(s0)
    80203fc4:	0007871b          	sext.w	a4,a5
    80203fc8:	00300793          	li	a5,3
    80203fcc:	00e7d663          	bge	a5,a4,80203fd8 <dasics_jumpcfg_kfree+0x38>
    80203fd0:	fff00793          	li	a5,-1
    80203fd4:	0540006f          	j	80204028 <dasics_jumpcfg_kfree+0x88>
    80203fd8:	01000793          	li	a5,16
    80203fdc:	fef42623          	sw	a5,-20(s0)
    80203fe0:	8c8027f3          	csrr	a5,0x8c8
    80203fe4:	fef43023          	sd	a5,-32(s0)
    80203fe8:	fe043783          	ld	a5,-32(s0)
    80203fec:	fcf43c23          	sd	a5,-40(s0)
    80203ff0:	fcc42703          	lw	a4,-52(s0)
    80203ff4:	fec42783          	lw	a5,-20(s0)
    80203ff8:	02f707bb          	mulw	a5,a4,a5
    80203ffc:	0007879b          	sext.w	a5,a5
    80204000:	00078713          	mv	a4,a5
    80204004:	00100793          	li	a5,1
    80204008:	00e797b3          	sll	a5,a5,a4
    8020400c:	fff7c793          	not	a5,a5
    80204010:	fd843703          	ld	a4,-40(s0)
    80204014:	00f777b3          	and	a5,a4,a5
    80204018:	fcf43c23          	sd	a5,-40(s0)
    8020401c:	fd843783          	ld	a5,-40(s0)
    80204020:	8c879073          	csrw	0x8c8,a5
    80204024:	00000793          	li	a5,0
    80204028:	00078513          	mv	a0,a5
    8020402c:	03813403          	ld	s0,56(sp)
    80204030:	04010113          	addi	sp,sp,64
    80204034:	00008067          	ret

0000000080204038 <dasics_jumpcfg_kget>:
    80204038:	fc010113          	addi	sp,sp,-64
    8020403c:	02813c23          	sd	s0,56(sp)
    80204040:	04010413          	addi	s0,sp,64
    80204044:	00050793          	mv	a5,a0
    80204048:	fcf42623          	sw	a5,-52(s0)
    8020404c:	fcc42783          	lw	a5,-52(s0)
    80204050:	0007879b          	sext.w	a5,a5
    80204054:	0007ca63          	bltz	a5,80204068 <dasics_jumpcfg_kget+0x30>
    80204058:	fcc42783          	lw	a5,-52(s0)
    8020405c:	0007871b          	sext.w	a4,a5
    80204060:	00300793          	li	a5,3
    80204064:	00e7d663          	bge	a5,a4,80204070 <dasics_jumpcfg_kget+0x38>
    80204068:	fff00793          	li	a5,-1
    8020406c:	0500006f          	j	802040bc <dasics_jumpcfg_kget+0x84>
    80204070:	01000793          	li	a5,16
    80204074:	fef42623          	sw	a5,-20(s0)
    80204078:	8c8027f3          	csrr	a5,0x8c8
    8020407c:	fef43023          	sd	a5,-32(s0)
    80204080:	fe043783          	ld	a5,-32(s0)
    80204084:	fcf43c23          	sd	a5,-40(s0)
    80204088:	fcc42703          	lw	a4,-52(s0)
    8020408c:	fec42783          	lw	a5,-20(s0)
    80204090:	02f707bb          	mulw	a5,a4,a5
    80204094:	0007879b          	sext.w	a5,a5
    80204098:	00078713          	mv	a4,a5
    8020409c:	fd843783          	ld	a5,-40(s0)
    802040a0:	00e7d7b3          	srl	a5,a5,a4
    802040a4:	0007879b          	sext.w	a5,a5
    802040a8:	00078713          	mv	a4,a5
    802040ac:	000107b7          	lui	a5,0x10
    802040b0:	fff78793          	addi	a5,a5,-1 # ffff <_start-0x801f0001>
    802040b4:	00f777b3          	and	a5,a4,a5
    802040b8:	0007879b          	sext.w	a5,a5
    802040bc:	00078513          	mv	a0,a5
    802040c0:	03813403          	ld	s0,56(sp)
    802040c4:	04010113          	addi	sp,sp,64
    802040c8:	00008067          	ret

00000000802040cc <__UMAIN_TEXT_BEGIN__>:
    802040cc:	ff810113          	addi	sp,sp,-8
    802040d0:	00113023          	sd	ra,0(sp)
    802040d4:	0005908b          	0x5908b
    802040d8:	00013083          	ld	ra,0(sp)
    802040dc:	00810113          	addi	sp,sp,8
    802040e0:	00008067          	ret

00000000802040e4 <main_call_lib>:
    802040e4:	ff810113          	addi	sp,sp,-8
    802040e8:	00113023          	sd	ra,0(sp)
    802040ec:	0005108b          	0x5108b
    802040f0:	00013083          	ld	ra,0(sp)
    802040f4:	00810113          	addi	sp,sp,8
    802040f8:	00008067          	ret

00000000802040fc <dasics_init_umaincall>:
    802040fc:	fe010113          	addi	sp,sp,-32
    80204100:	00813c23          	sd	s0,24(sp)
    80204104:	02010413          	addi	s0,sp,32
    80204108:	fea43423          	sd	a0,-24(s0)
    8020410c:	fe843783          	ld	a5,-24(s0)
    80204110:	8b079073          	csrw	0x8b0,a5
    80204114:	00000013          	nop
    80204118:	01813403          	ld	s0,24(sp)
    8020411c:	02010113          	addi	sp,sp,32
    80204120:	00008067          	ret

0000000080204124 <dasics_umaincall>:
    80204124:	fa010113          	addi	sp,sp,-96
    80204128:	04113c23          	sd	ra,88(sp)
    8020412c:	04813823          	sd	s0,80(sp)
    80204130:	06010413          	addi	s0,sp,96
    80204134:	00050793          	mv	a5,a0
    80204138:	fab43823          	sd	a1,-80(s0)
    8020413c:	fac43423          	sd	a2,-88(s0)
    80204140:	fad43023          	sd	a3,-96(s0)
    80204144:	faf42e23          	sw	a5,-68(s0)
    80204148:	8b1027f3          	csrr	a5,0x8b1
    8020414c:	fef43023          	sd	a5,-32(s0)
    80204150:	fe043783          	ld	a5,-32(s0)
    80204154:	fcf43c23          	sd	a5,-40(s0)
    80204158:	8b2027f3          	csrr	a5,0x8b2
    8020415c:	fcf43823          	sd	a5,-48(s0)
    80204160:	fd043783          	ld	a5,-48(s0)
    80204164:	fcf43423          	sd	a5,-56(s0)
    80204168:	fe043423          	sd	zero,-24(s0)
    8020416c:	fbc42783          	lw	a5,-68(s0)
    80204170:	0007871b          	sext.w	a4,a5
    80204174:	00a00793          	li	a5,10
    80204178:	0ee7ea63          	bltu	a5,a4,8020426c <dasics_umaincall+0x148>
    8020417c:	fbc46783          	lwu	a5,-68(s0)
    80204180:	00279713          	slli	a4,a5,0x2
    80204184:	00002797          	auipc	a5,0x2
    80204188:	ddc78793          	addi	a5,a5,-548 # 80205f60 <__RODATA_BEGIN__+0x28>
    8020418c:	00f707b3          	add	a5,a4,a5
    80204190:	0007a783          	lw	a5,0(a5)
    80204194:	0007871b          	sext.w	a4,a5
    80204198:	00002797          	auipc	a5,0x2
    8020419c:	dc878793          	addi	a5,a5,-568 # 80205f60 <__RODATA_BEGIN__+0x28>
    802041a0:	00f707b3          	add	a5,a4,a5
    802041a4:	00078067          	jr	a5
    802041a8:	cd0fc0ef          	jal	ra,80200678 <sys_exit>
    802041ac:	0d80006f          	j	80204284 <dasics_umaincall+0x160>
    802041b0:	d00fc0ef          	jal	ra,802006b0 <sys_yield>
    802041b4:	0d00006f          	j	80204284 <dasics_umaincall+0x160>
    802041b8:	fb043783          	ld	a5,-80(s0)
    802041bc:	0007879b          	sext.w	a5,a5
    802041c0:	00078513          	mv	a0,a5
    802041c4:	d24fc0ef          	jal	ra,802006e8 <sys_sleep>
    802041c8:	0bc0006f          	j	80204284 <dasics_umaincall+0x160>
    802041cc:	fb043783          	ld	a5,-80(s0)
    802041d0:	00078513          	mv	a0,a5
    802041d4:	d58fc0ef          	jal	ra,8020072c <sys_write>
    802041d8:	0ac0006f          	j	80204284 <dasics_umaincall+0x160>
    802041dc:	d90fc0ef          	jal	ra,8020076c <sys_reflush>
    802041e0:	0a40006f          	j	80204284 <dasics_umaincall+0x160>
    802041e4:	fb043783          	ld	a5,-80(s0)
    802041e8:	0007879b          	sext.w	a5,a5
    802041ec:	fa843703          	ld	a4,-88(s0)
    802041f0:	0007071b          	sext.w	a4,a4
    802041f4:	00070593          	mv	a1,a4
    802041f8:	00078513          	mv	a0,a5
    802041fc:	da8fc0ef          	jal	ra,802007a4 <sys_move_cursor>
    80204200:	0840006f          	j	80204284 <dasics_umaincall+0x160>
    80204204:	fb043783          	ld	a5,-80(s0)
    80204208:	fa843583          	ld	a1,-88(s0)
    8020420c:	00078513          	mv	a0,a5
    80204210:	de8fc0ef          	jal	ra,802007f8 <sys_futex_wait>
    80204214:	0700006f          	j	80204284 <dasics_umaincall+0x160>
    80204218:	fb043783          	ld	a5,-80(s0)
    8020421c:	fa843703          	ld	a4,-88(s0)
    80204220:	0007071b          	sext.w	a4,a4
    80204224:	00070593          	mv	a1,a4
    80204228:	00078513          	mv	a0,a5
    8020422c:	e14fc0ef          	jal	ra,80200840 <sys_futex_wakeup>
    80204230:	0540006f          	j	80204284 <dasics_umaincall+0x160>
    80204234:	e58fc0ef          	jal	ra,8020088c <sys_get_timebase>
    80204238:	00050793          	mv	a5,a0
    8020423c:	fef43423          	sd	a5,-24(s0)
    80204240:	0440006f          	j	80204284 <dasics_umaincall+0x160>
    80204244:	e84fc0ef          	jal	ra,802008c8 <sys_get_tick>
    80204248:	00050793          	mv	a5,a0
    8020424c:	fef43423          	sd	a5,-24(s0)
    80204250:	0340006f          	j	80204284 <dasics_umaincall+0x160>
    80204254:	fb043783          	ld	a5,-80(s0)
    80204258:	00002597          	auipc	a1,0x2
    8020425c:	c6858593          	addi	a1,a1,-920 # 80205ec0 <printf>
    80204260:	00078513          	mv	a0,a5
    80204264:	e69ff0ef          	jal	ra,802040cc <__UMAIN_TEXT_BEGIN__>
    80204268:	01c0006f          	j	80204284 <dasics_umaincall+0x160>
    8020426c:	fbc42783          	lw	a5,-68(s0)
    80204270:	00078593          	mv	a1,a5
    80204274:	00002517          	auipc	a0,0x2
    80204278:	cc450513          	addi	a0,a0,-828 # 80205f38 <__RODATA_BEGIN__>
    8020427c:	445010ef          	jal	ra,80205ec0 <printf>
    80204280:	00000013          	nop
    80204284:	fd843783          	ld	a5,-40(s0)
    80204288:	8b179073          	csrw	0x8b1,a5
    8020428c:	fc843783          	ld	a5,-56(s0)
    80204290:	8b279073          	csrw	0x8b2,a5
    80204294:	00078513          	mv	a0,a5
    80204298:	05813083          	ld	ra,88(sp)
    8020429c:	05013403          	ld	s0,80(sp)
    802042a0:	06010113          	addi	sp,sp,96
    802042a4:	00008067          	ret
    802042a8:	00000013          	nop
    802042ac:	fe843783          	ld	a5,-24(s0)
    802042b0:	00078513          	mv	a0,a5
    802042b4:	05813083          	ld	ra,88(sp)
    802042b8:	05013403          	ld	s0,80(sp)
    802042bc:	06010113          	addi	sp,sp,96
    802042c0:	00008067          	ret

00000000802042c4 <dasics_ufault_entry>:
    802042c4:	f9010113          	addi	sp,sp,-112
    802042c8:	06113423          	sd	ra,104(sp)
    802042cc:	06813023          	sd	s0,96(sp)
    802042d0:	07010413          	addi	s0,sp,112
    802042d4:	8b1027f3          	csrr	a5,0x8b1
    802042d8:	fef43423          	sd	a5,-24(s0)
    802042dc:	fe843783          	ld	a5,-24(s0)
    802042e0:	fef43023          	sd	a5,-32(s0)
    802042e4:	8b2027f3          	csrr	a5,0x8b2
    802042e8:	fcf43c23          	sd	a5,-40(s0)
    802042ec:	fd843783          	ld	a5,-40(s0)
    802042f0:	fcf43823          	sd	a5,-48(s0)
    802042f4:	000027f3          	csrr	a5,ustatus
    802042f8:	fcf43423          	sd	a5,-56(s0)
    802042fc:	fc843783          	ld	a5,-56(s0)
    80204300:	fcf43023          	sd	a5,-64(s0)
    80204304:	042027f3          	csrr	a5,ucause
    80204308:	faf43c23          	sd	a5,-72(s0)
    8020430c:	fb843783          	ld	a5,-72(s0)
    80204310:	faf43823          	sd	a5,-80(s0)
    80204314:	043027f3          	csrr	a5,utval
    80204318:	faf43423          	sd	a5,-88(s0)
    8020431c:	fa843783          	ld	a5,-88(s0)
    80204320:	faf43023          	sd	a5,-96(s0)
    80204324:	041027f3          	csrr	a5,uepc
    80204328:	f8f43c23          	sd	a5,-104(s0)
    8020432c:	f9843783          	ld	a5,-104(s0)
    80204330:	f8f43823          	sd	a5,-112(s0)
    80204334:	fb043703          	ld	a4,-80(s0)
    80204338:	01c00793          	li	a5,28
    8020433c:	04f70e63          	beq	a4,a5,80204398 <dasics_ufault_entry+0xd4>
    80204340:	fb043703          	ld	a4,-80(s0)
    80204344:	01c00793          	li	a5,28
    80204348:	06e7e463          	bltu	a5,a4,802043b0 <dasics_ufault_entry+0xec>
    8020434c:	fb043703          	ld	a4,-80(s0)
    80204350:	01800793          	li	a5,24
    80204354:	00f70a63          	beq	a4,a5,80204368 <dasics_ufault_entry+0xa4>
    80204358:	fb043703          	ld	a4,-80(s0)
    8020435c:	01a00793          	li	a5,26
    80204360:	02f70063          	beq	a4,a5,80204380 <dasics_ufault_entry+0xbc>
    80204364:	04c0006f          	j	802043b0 <dasics_ufault_entry+0xec>
    80204368:	00002597          	auipc	a1,0x2
    8020436c:	b5858593          	addi	a1,a1,-1192 # 80205ec0 <printf>
    80204370:	00002517          	auipc	a0,0x2
    80204374:	c2050513          	addi	a0,a0,-992 # 80205f90 <__RODATA_BEGIN__+0x58>
    80204378:	d55ff0ef          	jal	ra,802040cc <__UMAIN_TEXT_BEGIN__>
    8020437c:	0500006f          	j	802043cc <dasics_ufault_entry+0x108>
    80204380:	00002597          	auipc	a1,0x2
    80204384:	b4058593          	addi	a1,a1,-1216 # 80205ec0 <printf>
    80204388:	00002517          	auipc	a0,0x2
    8020438c:	c5050513          	addi	a0,a0,-944 # 80205fd8 <__RODATA_BEGIN__+0xa0>
    80204390:	d3dff0ef          	jal	ra,802040cc <__UMAIN_TEXT_BEGIN__>
    80204394:	0380006f          	j	802043cc <dasics_ufault_entry+0x108>
    80204398:	00002597          	auipc	a1,0x2
    8020439c:	b2858593          	addi	a1,a1,-1240 # 80205ec0 <printf>
    802043a0:	00002517          	auipc	a0,0x2
    802043a4:	c8050513          	addi	a0,a0,-896 # 80206020 <__RODATA_BEGIN__+0xe8>
    802043a8:	d25ff0ef          	jal	ra,802040cc <__UMAIN_TEXT_BEGIN__>
    802043ac:	0200006f          	j	802043cc <dasics_ufault_entry+0x108>
    802043b0:	00002597          	auipc	a1,0x2
    802043b4:	b1058593          	addi	a1,a1,-1264 # 80205ec0 <printf>
    802043b8:	00002517          	auipc	a0,0x2
    802043bc:	cb050513          	addi	a0,a0,-848 # 80206068 <__RODATA_BEGIN__+0x130>
    802043c0:	d0dff0ef          	jal	ra,802040cc <__UMAIN_TEXT_BEGIN__>
    802043c4:	ab4fc0ef          	jal	ra,80200678 <sys_exit>
    802043c8:	00000013          	nop
    802043cc:	f9043783          	ld	a5,-112(s0)
    802043d0:	00478793          	addi	a5,a5,4
    802043d4:	04179073          	csrw	uepc,a5
    802043d8:	fe043783          	ld	a5,-32(s0)
    802043dc:	8b179073          	csrw	0x8b1,a5
    802043e0:	fd043783          	ld	a5,-48(s0)
    802043e4:	8b279073          	csrw	0x8b2,a5
    802043e8:	06813083          	ld	ra,104(sp)
    802043ec:	06013403          	ld	s0,96(sp)
    802043f0:	07010113          	addi	sp,sp,112
    802043f4:	00200073          	uret
    802043f8:	00000013          	nop
    802043fc:	06813083          	ld	ra,104(sp)
    80204400:	06013403          	ld	s0,96(sp)
    80204404:	07010113          	addi	sp,sp,112
    80204408:	00008067          	ret

000000008020440c <dasics_libcfg_alloc>:
    8020440c:	fa010113          	addi	sp,sp,-96
    80204410:	04813c23          	sd	s0,88(sp)
    80204414:	06010413          	addi	s0,sp,96
    80204418:	faa43c23          	sd	a0,-72(s0)
    8020441c:	fab43823          	sd	a1,-80(s0)
    80204420:	fac43423          	sd	a2,-88(s0)
    80204424:	880027f3          	csrr	a5,0x880
    80204428:	fef43023          	sd	a5,-32(s0)
    8020442c:	fe043783          	ld	a5,-32(s0)
    80204430:	fcf43c23          	sd	a5,-40(s0)
    80204434:	01000793          	li	a5,16
    80204438:	fcf42a23          	sw	a5,-44(s0)
    8020443c:	00400793          	li	a5,4
    80204440:	fcf42823          	sw	a5,-48(s0)
    80204444:	fe042623          	sw	zero,-20(s0)
    80204448:	2240006f          	j	8020466c <dasics_libcfg_alloc+0x260>
    8020444c:	fec42703          	lw	a4,-20(s0)
    80204450:	fd042783          	lw	a5,-48(s0)
    80204454:	02f707bb          	mulw	a5,a4,a5
    80204458:	0007879b          	sext.w	a5,a5
    8020445c:	00078713          	mv	a4,a5
    80204460:	fd843783          	ld	a5,-40(s0)
    80204464:	00e7d7b3          	srl	a5,a5,a4
    80204468:	00f7f793          	andi	a5,a5,15
    8020446c:	fcf43423          	sd	a5,-56(s0)
    80204470:	fc843783          	ld	a5,-56(s0)
    80204474:	0087f793          	andi	a5,a5,8
    80204478:	1e079463          	bnez	a5,80204660 <dasics_libcfg_alloc+0x254>
    8020447c:	fec42783          	lw	a5,-20(s0)
    80204480:	0007871b          	sext.w	a4,a5
    80204484:	00f00793          	li	a5,15
    80204488:	16e7e863          	bltu	a5,a4,802045f8 <dasics_libcfg_alloc+0x1ec>
    8020448c:	fec46783          	lwu	a5,-20(s0)
    80204490:	00279713          	slli	a4,a5,0x2
    80204494:	00002797          	auipc	a5,0x2
    80204498:	c0078793          	addi	a5,a5,-1024 # 80206094 <__RODATA_BEGIN__+0x15c>
    8020449c:	00f707b3          	add	a5,a4,a5
    802044a0:	0007a783          	lw	a5,0(a5)
    802044a4:	0007871b          	sext.w	a4,a5
    802044a8:	00002797          	auipc	a5,0x2
    802044ac:	bec78793          	addi	a5,a5,-1044 # 80206094 <__RODATA_BEGIN__+0x15c>
    802044b0:	00f707b3          	add	a5,a4,a5
    802044b4:	00078067          	jr	a5
    802044b8:	fb043783          	ld	a5,-80(s0)
    802044bc:	89079073          	csrw	0x890,a5
    802044c0:	fa843783          	ld	a5,-88(s0)
    802044c4:	89179073          	csrw	0x891,a5
    802044c8:	1340006f          	j	802045fc <dasics_libcfg_alloc+0x1f0>
    802044cc:	fb043783          	ld	a5,-80(s0)
    802044d0:	89279073          	csrw	0x892,a5
    802044d4:	fa843783          	ld	a5,-88(s0)
    802044d8:	89379073          	csrw	0x893,a5
    802044dc:	1200006f          	j	802045fc <dasics_libcfg_alloc+0x1f0>
    802044e0:	fb043783          	ld	a5,-80(s0)
    802044e4:	89479073          	csrw	0x894,a5
    802044e8:	fa843783          	ld	a5,-88(s0)
    802044ec:	89579073          	csrw	0x895,a5
    802044f0:	10c0006f          	j	802045fc <dasics_libcfg_alloc+0x1f0>
    802044f4:	fb043783          	ld	a5,-80(s0)
    802044f8:	89679073          	csrw	0x896,a5
    802044fc:	fa843783          	ld	a5,-88(s0)
    80204500:	89779073          	csrw	0x897,a5
    80204504:	0f80006f          	j	802045fc <dasics_libcfg_alloc+0x1f0>
    80204508:	fb043783          	ld	a5,-80(s0)
    8020450c:	89879073          	csrw	0x898,a5
    80204510:	fa843783          	ld	a5,-88(s0)
    80204514:	89979073          	csrw	0x899,a5
    80204518:	0e40006f          	j	802045fc <dasics_libcfg_alloc+0x1f0>
    8020451c:	fb043783          	ld	a5,-80(s0)
    80204520:	89a79073          	csrw	0x89a,a5
    80204524:	fa843783          	ld	a5,-88(s0)
    80204528:	89b79073          	csrw	0x89b,a5
    8020452c:	0d00006f          	j	802045fc <dasics_libcfg_alloc+0x1f0>
    80204530:	fb043783          	ld	a5,-80(s0)
    80204534:	89c79073          	csrw	0x89c,a5
    80204538:	fa843783          	ld	a5,-88(s0)
    8020453c:	89d79073          	csrw	0x89d,a5
    80204540:	0bc0006f          	j	802045fc <dasics_libcfg_alloc+0x1f0>
    80204544:	fb043783          	ld	a5,-80(s0)
    80204548:	89e79073          	csrw	0x89e,a5
    8020454c:	fa843783          	ld	a5,-88(s0)
    80204550:	89f79073          	csrw	0x89f,a5
    80204554:	0a80006f          	j	802045fc <dasics_libcfg_alloc+0x1f0>
    80204558:	fb043783          	ld	a5,-80(s0)
    8020455c:	8a079073          	csrw	0x8a0,a5
    80204560:	fa843783          	ld	a5,-88(s0)
    80204564:	8a179073          	csrw	0x8a1,a5
    80204568:	0940006f          	j	802045fc <dasics_libcfg_alloc+0x1f0>
    8020456c:	fb043783          	ld	a5,-80(s0)
    80204570:	8a279073          	csrw	0x8a2,a5
    80204574:	fa843783          	ld	a5,-88(s0)
    80204578:	8a379073          	csrw	0x8a3,a5
    8020457c:	0800006f          	j	802045fc <dasics_libcfg_alloc+0x1f0>
    80204580:	fb043783          	ld	a5,-80(s0)
    80204584:	8a479073          	csrw	0x8a4,a5
    80204588:	fa843783          	ld	a5,-88(s0)
    8020458c:	8a579073          	csrw	0x8a5,a5
    80204590:	06c0006f          	j	802045fc <dasics_libcfg_alloc+0x1f0>
    80204594:	fb043783          	ld	a5,-80(s0)
    80204598:	8a679073          	csrw	0x8a6,a5
    8020459c:	fa843783          	ld	a5,-88(s0)
    802045a0:	8a779073          	csrw	0x8a7,a5
    802045a4:	0580006f          	j	802045fc <dasics_libcfg_alloc+0x1f0>
    802045a8:	fb043783          	ld	a5,-80(s0)
    802045ac:	8a879073          	csrw	0x8a8,a5
    802045b0:	fa843783          	ld	a5,-88(s0)
    802045b4:	8a979073          	csrw	0x8a9,a5
    802045b8:	0440006f          	j	802045fc <dasics_libcfg_alloc+0x1f0>
    802045bc:	fb043783          	ld	a5,-80(s0)
    802045c0:	8aa79073          	csrw	0x8aa,a5
    802045c4:	fa843783          	ld	a5,-88(s0)
    802045c8:	8ab79073          	csrw	0x8ab,a5
    802045cc:	0300006f          	j	802045fc <dasics_libcfg_alloc+0x1f0>
    802045d0:	fb043783          	ld	a5,-80(s0)
    802045d4:	8ac79073          	csrw	0x8ac,a5
    802045d8:	fa843783          	ld	a5,-88(s0)
    802045dc:	8ad79073          	csrw	0x8ad,a5
    802045e0:	01c0006f          	j	802045fc <dasics_libcfg_alloc+0x1f0>
    802045e4:	fb043783          	ld	a5,-80(s0)
    802045e8:	8ae79073          	csrw	0x8ae,a5
    802045ec:	fa843783          	ld	a5,-88(s0)
    802045f0:	8af79073          	csrw	0x8af,a5
    802045f4:	0080006f          	j	802045fc <dasics_libcfg_alloc+0x1f0>
    802045f8:	00000013          	nop
    802045fc:	fec42703          	lw	a4,-20(s0)
    80204600:	fd042783          	lw	a5,-48(s0)
    80204604:	02f707bb          	mulw	a5,a4,a5
    80204608:	0007879b          	sext.w	a5,a5
    8020460c:	00078713          	mv	a4,a5
    80204610:	00f00793          	li	a5,15
    80204614:	00e797b3          	sll	a5,a5,a4
    80204618:	fff7c793          	not	a5,a5
    8020461c:	fd843703          	ld	a4,-40(s0)
    80204620:	00f777b3          	and	a5,a4,a5
    80204624:	fcf43c23          	sd	a5,-40(s0)
    80204628:	fb843783          	ld	a5,-72(s0)
    8020462c:	00f7f793          	andi	a5,a5,15
    80204630:	fec42683          	lw	a3,-20(s0)
    80204634:	fd042703          	lw	a4,-48(s0)
    80204638:	02e6873b          	mulw	a4,a3,a4
    8020463c:	0007071b          	sext.w	a4,a4
    80204640:	00e797b3          	sll	a5,a5,a4
    80204644:	fd843703          	ld	a4,-40(s0)
    80204648:	00f767b3          	or	a5,a4,a5
    8020464c:	fcf43c23          	sd	a5,-40(s0)
    80204650:	fd843783          	ld	a5,-40(s0)
    80204654:	88079073          	csrw	0x880,a5
    80204658:	fec42783          	lw	a5,-20(s0)
    8020465c:	0280006f          	j	80204684 <dasics_libcfg_alloc+0x278>
    80204660:	fec42783          	lw	a5,-20(s0)
    80204664:	0017879b          	addiw	a5,a5,1
    80204668:	fef42623          	sw	a5,-20(s0)
    8020466c:	fec42703          	lw	a4,-20(s0)
    80204670:	fd442783          	lw	a5,-44(s0)
    80204674:	0007071b          	sext.w	a4,a4
    80204678:	0007879b          	sext.w	a5,a5
    8020467c:	dcf748e3          	blt	a4,a5,8020444c <dasics_libcfg_alloc+0x40>
    80204680:	fff00793          	li	a5,-1
    80204684:	00078513          	mv	a0,a5
    80204688:	05813403          	ld	s0,88(sp)
    8020468c:	06010113          	addi	sp,sp,96
    80204690:	00008067          	ret

0000000080204694 <dasics_libcfg_free>:
    80204694:	fc010113          	addi	sp,sp,-64
    80204698:	02813c23          	sd	s0,56(sp)
    8020469c:	04010413          	addi	s0,sp,64
    802046a0:	00050793          	mv	a5,a0
    802046a4:	fcf42623          	sw	a5,-52(s0)
    802046a8:	fcc42783          	lw	a5,-52(s0)
    802046ac:	0007879b          	sext.w	a5,a5
    802046b0:	0007ca63          	bltz	a5,802046c4 <dasics_libcfg_free+0x30>
    802046b4:	fcc42783          	lw	a5,-52(s0)
    802046b8:	0007871b          	sext.w	a4,a5
    802046bc:	00f00793          	li	a5,15
    802046c0:	00e7d663          	bge	a5,a4,802046cc <dasics_libcfg_free+0x38>
    802046c4:	fff00793          	li	a5,-1
    802046c8:	0540006f          	j	8020471c <dasics_libcfg_free+0x88>
    802046cc:	00400793          	li	a5,4
    802046d0:	fef42623          	sw	a5,-20(s0)
    802046d4:	880027f3          	csrr	a5,0x880
    802046d8:	fef43023          	sd	a5,-32(s0)
    802046dc:	fe043783          	ld	a5,-32(s0)
    802046e0:	fcf43c23          	sd	a5,-40(s0)
    802046e4:	fcc42703          	lw	a4,-52(s0)
    802046e8:	fec42783          	lw	a5,-20(s0)
    802046ec:	02f707bb          	mulw	a5,a4,a5
    802046f0:	0007879b          	sext.w	a5,a5
    802046f4:	00078713          	mv	a4,a5
    802046f8:	00800793          	li	a5,8
    802046fc:	00e797b3          	sll	a5,a5,a4
    80204700:	fff7c793          	not	a5,a5
    80204704:	fd843703          	ld	a4,-40(s0)
    80204708:	00f777b3          	and	a5,a4,a5
    8020470c:	fcf43c23          	sd	a5,-40(s0)
    80204710:	fd843783          	ld	a5,-40(s0)
    80204714:	88079073          	csrw	0x880,a5
    80204718:	00000793          	li	a5,0
    8020471c:	00078513          	mv	a0,a5
    80204720:	03813403          	ld	s0,56(sp)
    80204724:	04010113          	addi	sp,sp,64
    80204728:	00008067          	ret

000000008020472c <dasics_libcfg_get>:
    8020472c:	fc010113          	addi	sp,sp,-64
    80204730:	02813c23          	sd	s0,56(sp)
    80204734:	04010413          	addi	s0,sp,64
    80204738:	00050793          	mv	a5,a0
    8020473c:	fcf42623          	sw	a5,-52(s0)
    80204740:	fcc42783          	lw	a5,-52(s0)
    80204744:	0007879b          	sext.w	a5,a5
    80204748:	0007ca63          	bltz	a5,8020475c <dasics_libcfg_get+0x30>
    8020474c:	fcc42783          	lw	a5,-52(s0)
    80204750:	0007871b          	sext.w	a4,a5
    80204754:	00f00793          	li	a5,15
    80204758:	00e7d663          	bge	a5,a4,80204764 <dasics_libcfg_get+0x38>
    8020475c:	fff00793          	li	a5,-1
    80204760:	0440006f          	j	802047a4 <dasics_libcfg_get+0x78>
    80204764:	00400793          	li	a5,4
    80204768:	fef42623          	sw	a5,-20(s0)
    8020476c:	880027f3          	csrr	a5,0x880
    80204770:	fef43023          	sd	a5,-32(s0)
    80204774:	fe043783          	ld	a5,-32(s0)
    80204778:	fcf43c23          	sd	a5,-40(s0)
    8020477c:	fcc42703          	lw	a4,-52(s0)
    80204780:	fec42783          	lw	a5,-20(s0)
    80204784:	02f707bb          	mulw	a5,a4,a5
    80204788:	0007879b          	sext.w	a5,a5
    8020478c:	00078713          	mv	a4,a5
    80204790:	fd843783          	ld	a5,-40(s0)
    80204794:	00e7d7b3          	srl	a5,a5,a4
    80204798:	0007879b          	sext.w	a5,a5
    8020479c:	00f7f793          	andi	a5,a5,15
    802047a0:	0007879b          	sext.w	a5,a5
    802047a4:	00078513          	mv	a0,a5
    802047a8:	03813403          	ld	s0,56(sp)
    802047ac:	04010113          	addi	sp,sp,64
    802047b0:	00008067          	ret

00000000802047b4 <dasics_jumpcfg_alloc>:
    802047b4:	fb010113          	addi	sp,sp,-80
    802047b8:	04813423          	sd	s0,72(sp)
    802047bc:	05010413          	addi	s0,sp,80
    802047c0:	faa43c23          	sd	a0,-72(s0)
    802047c4:	fab43823          	sd	a1,-80(s0)
    802047c8:	8c8027f3          	csrr	a5,0x8c8
    802047cc:	fef43023          	sd	a5,-32(s0)
    802047d0:	fe043783          	ld	a5,-32(s0)
    802047d4:	fcf43c23          	sd	a5,-40(s0)
    802047d8:	00400793          	li	a5,4
    802047dc:	fcf42a23          	sw	a5,-44(s0)
    802047e0:	01000793          	li	a5,16
    802047e4:	fcf42823          	sw	a5,-48(s0)
    802047e8:	fe042623          	sw	zero,-20(s0)
    802047ec:	1640006f          	j	80204950 <dasics_jumpcfg_alloc+0x19c>
    802047f0:	fec42703          	lw	a4,-20(s0)
    802047f4:	fd042783          	lw	a5,-48(s0)
    802047f8:	02f707bb          	mulw	a5,a4,a5
    802047fc:	0007879b          	sext.w	a5,a5
    80204800:	00078713          	mv	a4,a5
    80204804:	fd843783          	ld	a5,-40(s0)
    80204808:	00e7d733          	srl	a4,a5,a4
    8020480c:	000107b7          	lui	a5,0x10
    80204810:	fff78793          	addi	a5,a5,-1 # ffff <_start-0x801f0001>
    80204814:	00f777b3          	and	a5,a4,a5
    80204818:	fcf43423          	sd	a5,-56(s0)
    8020481c:	fc843783          	ld	a5,-56(s0)
    80204820:	0017f793          	andi	a5,a5,1
    80204824:	12079063          	bnez	a5,80204944 <dasics_jumpcfg_alloc+0x190>
    80204828:	fec42783          	lw	a5,-20(s0)
    8020482c:	0007871b          	sext.w	a4,a5
    80204830:	00300793          	li	a5,3
    80204834:	08f70863          	beq	a4,a5,802048c4 <dasics_jumpcfg_alloc+0x110>
    80204838:	fec42783          	lw	a5,-20(s0)
    8020483c:	0007871b          	sext.w	a4,a5
    80204840:	00300793          	li	a5,3
    80204844:	08e7ca63          	blt	a5,a4,802048d8 <dasics_jumpcfg_alloc+0x124>
    80204848:	fec42783          	lw	a5,-20(s0)
    8020484c:	0007871b          	sext.w	a4,a5
    80204850:	00200793          	li	a5,2
    80204854:	04f70e63          	beq	a4,a5,802048b0 <dasics_jumpcfg_alloc+0xfc>
    80204858:	fec42783          	lw	a5,-20(s0)
    8020485c:	0007871b          	sext.w	a4,a5
    80204860:	00200793          	li	a5,2
    80204864:	06e7ca63          	blt	a5,a4,802048d8 <dasics_jumpcfg_alloc+0x124>
    80204868:	fec42783          	lw	a5,-20(s0)
    8020486c:	0007879b          	sext.w	a5,a5
    80204870:	00078c63          	beqz	a5,80204888 <dasics_jumpcfg_alloc+0xd4>
    80204874:	fec42783          	lw	a5,-20(s0)
    80204878:	0007871b          	sext.w	a4,a5
    8020487c:	00100793          	li	a5,1
    80204880:	00f70e63          	beq	a4,a5,8020489c <dasics_jumpcfg_alloc+0xe8>
    80204884:	0540006f          	j	802048d8 <dasics_jumpcfg_alloc+0x124>
    80204888:	fb843783          	ld	a5,-72(s0)
    8020488c:	8c079073          	csrw	0x8c0,a5
    80204890:	fb043783          	ld	a5,-80(s0)
    80204894:	8c179073          	csrw	0x8c1,a5
    80204898:	0440006f          	j	802048dc <dasics_jumpcfg_alloc+0x128>
    8020489c:	fb843783          	ld	a5,-72(s0)
    802048a0:	8c279073          	csrw	0x8c2,a5
    802048a4:	fb043783          	ld	a5,-80(s0)
    802048a8:	8c379073          	csrw	0x8c3,a5
    802048ac:	0300006f          	j	802048dc <dasics_jumpcfg_alloc+0x128>
    802048b0:	fb843783          	ld	a5,-72(s0)
    802048b4:	8c479073          	csrw	0x8c4,a5
    802048b8:	fb043783          	ld	a5,-80(s0)
    802048bc:	8c579073          	csrw	0x8c5,a5
    802048c0:	01c0006f          	j	802048dc <dasics_jumpcfg_alloc+0x128>
    802048c4:	fb843783          	ld	a5,-72(s0)
    802048c8:	8c679073          	csrw	0x8c6,a5
    802048cc:	fb043783          	ld	a5,-80(s0)
    802048d0:	8c779073          	csrw	0x8c7,a5
    802048d4:	0080006f          	j	802048dc <dasics_jumpcfg_alloc+0x128>
    802048d8:	00000013          	nop
    802048dc:	fec42703          	lw	a4,-20(s0)
    802048e0:	fd042783          	lw	a5,-48(s0)
    802048e4:	02f707bb          	mulw	a5,a4,a5
    802048e8:	0007879b          	sext.w	a5,a5
    802048ec:	00078713          	mv	a4,a5
    802048f0:	000107b7          	lui	a5,0x10
    802048f4:	fff78793          	addi	a5,a5,-1 # ffff <_start-0x801f0001>
    802048f8:	00e797b3          	sll	a5,a5,a4
    802048fc:	fff7c793          	not	a5,a5
    80204900:	fd843703          	ld	a4,-40(s0)
    80204904:	00f777b3          	and	a5,a4,a5
    80204908:	fcf43c23          	sd	a5,-40(s0)
    8020490c:	fec42703          	lw	a4,-20(s0)
    80204910:	fd042783          	lw	a5,-48(s0)
    80204914:	02f707bb          	mulw	a5,a4,a5
    80204918:	0007879b          	sext.w	a5,a5
    8020491c:	00078713          	mv	a4,a5
    80204920:	00100793          	li	a5,1
    80204924:	00e797b3          	sll	a5,a5,a4
    80204928:	fd843703          	ld	a4,-40(s0)
    8020492c:	00f767b3          	or	a5,a4,a5
    80204930:	fcf43c23          	sd	a5,-40(s0)
    80204934:	fd843783          	ld	a5,-40(s0)
    80204938:	8c879073          	csrw	0x8c8,a5
    8020493c:	fec42783          	lw	a5,-20(s0)
    80204940:	0280006f          	j	80204968 <dasics_jumpcfg_alloc+0x1b4>
    80204944:	fec42783          	lw	a5,-20(s0)
    80204948:	0017879b          	addiw	a5,a5,1
    8020494c:	fef42623          	sw	a5,-20(s0)
    80204950:	fec42703          	lw	a4,-20(s0)
    80204954:	fd442783          	lw	a5,-44(s0)
    80204958:	0007071b          	sext.w	a4,a4
    8020495c:	0007879b          	sext.w	a5,a5
    80204960:	e8f748e3          	blt	a4,a5,802047f0 <dasics_jumpcfg_alloc+0x3c>
    80204964:	fff00793          	li	a5,-1
    80204968:	00078513          	mv	a0,a5
    8020496c:	04813403          	ld	s0,72(sp)
    80204970:	05010113          	addi	sp,sp,80
    80204974:	00008067          	ret

0000000080204978 <dasics_jumpcfg_free>:
    80204978:	fc010113          	addi	sp,sp,-64
    8020497c:	02813c23          	sd	s0,56(sp)
    80204980:	04010413          	addi	s0,sp,64
    80204984:	00050793          	mv	a5,a0
    80204988:	fcf42623          	sw	a5,-52(s0)
    8020498c:	fcc42783          	lw	a5,-52(s0)
    80204990:	0007879b          	sext.w	a5,a5
    80204994:	0007ca63          	bltz	a5,802049a8 <dasics_jumpcfg_free+0x30>
    80204998:	fcc42783          	lw	a5,-52(s0)
    8020499c:	0007871b          	sext.w	a4,a5
    802049a0:	00300793          	li	a5,3
    802049a4:	00e7d663          	bge	a5,a4,802049b0 <dasics_jumpcfg_free+0x38>
    802049a8:	fff00793          	li	a5,-1
    802049ac:	0540006f          	j	80204a00 <dasics_jumpcfg_free+0x88>
    802049b0:	01000793          	li	a5,16
    802049b4:	fef42623          	sw	a5,-20(s0)
    802049b8:	8c8027f3          	csrr	a5,0x8c8
    802049bc:	fef43023          	sd	a5,-32(s0)
    802049c0:	fe043783          	ld	a5,-32(s0)
    802049c4:	fcf43c23          	sd	a5,-40(s0)
    802049c8:	fcc42703          	lw	a4,-52(s0)
    802049cc:	fec42783          	lw	a5,-20(s0)
    802049d0:	02f707bb          	mulw	a5,a4,a5
    802049d4:	0007879b          	sext.w	a5,a5
    802049d8:	00078713          	mv	a4,a5
    802049dc:	00100793          	li	a5,1
    802049e0:	00e797b3          	sll	a5,a5,a4
    802049e4:	fff7c793          	not	a5,a5
    802049e8:	fd843703          	ld	a4,-40(s0)
    802049ec:	00f777b3          	and	a5,a4,a5
    802049f0:	fcf43c23          	sd	a5,-40(s0)
    802049f4:	fd843783          	ld	a5,-40(s0)
    802049f8:	8c879073          	csrw	0x8c8,a5
    802049fc:	00000793          	li	a5,0
    80204a00:	00078513          	mv	a0,a5
    80204a04:	03813403          	ld	s0,56(sp)
    80204a08:	04010113          	addi	sp,sp,64
    80204a0c:	00008067          	ret

0000000080204a10 <dasics_main>:
    80204a10:	fe010113          	addi	sp,sp,-32
    80204a14:	00113c23          	sd	ra,24(sp)
    80204a18:	00813823          	sd	s0,16(sp)
    80204a1c:	02010413          	addi	s0,sp,32
    80204a20:	fffff797          	auipc	a5,0xfffff
    80204a24:	70478793          	addi	a5,a5,1796 # 80204124 <dasics_umaincall>
    80204a28:	00078513          	mv	a0,a5
    80204a2c:	ed0ff0ef          	jal	ra,802040fc <dasics_init_umaincall>
    80204a30:	00000797          	auipc	a5,0x0
    80204a34:	89478793          	addi	a5,a5,-1900 # 802042c4 <dasics_ufault_entry>
    80204a38:	00579073          	csrw	utvec,a5
    80204a3c:	00005797          	auipc	a5,0x5
    80204a40:	07478793          	addi	a5,a5,116 # 80209ab0 <main_prompt1>
    80204a44:	00005717          	auipc	a4,0x5
    80204a48:	0ec70713          	addi	a4,a4,236 # 80209b30 <main_prompt2>
    80204a4c:	00070613          	mv	a2,a4
    80204a50:	00078593          	mv	a1,a5
    80204a54:	00a00513          	li	a0,10
    80204a58:	9b5ff0ef          	jal	ra,8020440c <dasics_libcfg_alloc>
    80204a5c:	00050793          	mv	a5,a0
    80204a60:	fef42623          	sw	a5,-20(s0)
    80204a64:	00001597          	auipc	a1,0x1
    80204a68:	45c58593          	addi	a1,a1,1116 # 80205ec0 <printf>
    80204a6c:	00005517          	auipc	a0,0x5
    80204a70:	04450513          	addi	a0,a0,68 # 80209ab0 <main_prompt1>
    80204a74:	e58ff0ef          	jal	ra,802040cc <__UMAIN_TEXT_BEGIN__>
    80204a78:	fec42783          	lw	a5,-20(s0)
    80204a7c:	00078513          	mv	a0,a5
    80204a80:	c15ff0ef          	jal	ra,80204694 <dasics_libcfg_free>
    80204a84:	00005797          	auipc	a5,0x5
    80204a88:	f2c78793          	addi	a5,a5,-212 # 802099b0 <pub_readonly>
    80204a8c:	00005717          	auipc	a4,0x5
    80204a90:	fa470713          	addi	a4,a4,-92 # 80209a30 <pub_rwbuffer>
    80204a94:	00070613          	mv	a2,a4
    80204a98:	00078593          	mv	a1,a5
    80204a9c:	00a00513          	li	a0,10
    80204aa0:	96dff0ef          	jal	ra,8020440c <dasics_libcfg_alloc>
    80204aa4:	00050793          	mv	a5,a0
    80204aa8:	fef42623          	sw	a5,-20(s0)
    80204aac:	00005797          	auipc	a5,0x5
    80204ab0:	f8478793          	addi	a5,a5,-124 # 80209a30 <pub_rwbuffer>
    80204ab4:	00005717          	auipc	a4,0x5
    80204ab8:	ffc70713          	addi	a4,a4,-4 # 80209ab0 <main_prompt1>
    80204abc:	00070613          	mv	a2,a4
    80204ac0:	00078593          	mv	a1,a5
    80204ac4:	00b00513          	li	a0,11
    80204ac8:	945ff0ef          	jal	ra,8020440c <dasics_libcfg_alloc>
    80204acc:	00050793          	mv	a5,a0
    80204ad0:	fef42423          	sw	a5,-24(s0)
    80204ad4:	00005797          	auipc	a5,0x5
    80204ad8:	e5c78793          	addi	a5,a5,-420 # 80209930 <secret>
    80204adc:	00005717          	auipc	a4,0x5
    80204ae0:	ed470713          	addi	a4,a4,-300 # 802099b0 <pub_readonly>
    80204ae4:	00070613          	mv	a2,a4
    80204ae8:	00078593          	mv	a1,a5
    80204aec:	00800513          	li	a0,8
    80204af0:	91dff0ef          	jal	ra,8020440c <dasics_libcfg_alloc>
    80204af4:	00050793          	mv	a5,a0
    80204af8:	fef42223          	sw	a5,-28(s0)
    80204afc:	00001797          	auipc	a5,0x1
    80204b00:	a8478793          	addi	a5,a5,-1404 # 80205580 <dasics_ulib2>
    80204b04:	00001717          	auipc	a4,0x1
    80204b08:	b8070713          	addi	a4,a4,-1152 # 80205684 <mini_itoa>
    80204b0c:	00070593          	mv	a1,a4
    80204b10:	00078513          	mv	a0,a5
    80204b14:	ca1ff0ef          	jal	ra,802047b4 <dasics_jumpcfg_alloc>
    80204b18:	00050793          	mv	a5,a0
    80204b1c:	fef42023          	sw	a5,-32(s0)
    80204b20:	00001517          	auipc	a0,0x1
    80204b24:	a7c50513          	addi	a0,a0,-1412 # 8020559c <dasics_ulib1>
    80204b28:	dbcff0ef          	jal	ra,802040e4 <main_call_lib>
    80204b2c:	fe042783          	lw	a5,-32(s0)
    80204b30:	00078513          	mv	a0,a5
    80204b34:	e45ff0ef          	jal	ra,80204978 <dasics_jumpcfg_free>
    80204b38:	00005797          	auipc	a5,0x5
    80204b3c:	ff878793          	addi	a5,a5,-8 # 80209b30 <main_prompt2>
    80204b40:	00005717          	auipc	a4,0x5
    80204b44:	07070713          	addi	a4,a4,112 # 80209bb0 <main_prompt3>
    80204b48:	00070613          	mv	a2,a4
    80204b4c:	00078593          	mv	a1,a5
    80204b50:	00a00513          	li	a0,10
    80204b54:	8b9ff0ef          	jal	ra,8020440c <dasics_libcfg_alloc>
    80204b58:	00050793          	mv	a5,a0
    80204b5c:	fef42023          	sw	a5,-32(s0)
    80204b60:	fe042783          	lw	a5,-32(s0)
    80204b64:	00078513          	mv	a0,a5
    80204b68:	b2dff0ef          	jal	ra,80204694 <dasics_libcfg_free>
    80204b6c:	fe442783          	lw	a5,-28(s0)
    80204b70:	00078513          	mv	a0,a5
    80204b74:	b21ff0ef          	jal	ra,80204694 <dasics_libcfg_free>
    80204b78:	fe842783          	lw	a5,-24(s0)
    80204b7c:	00078513          	mv	a0,a5
    80204b80:	b15ff0ef          	jal	ra,80204694 <dasics_libcfg_free>
    80204b84:	fec42783          	lw	a5,-20(s0)
    80204b88:	00078513          	mv	a0,a5
    80204b8c:	b09ff0ef          	jal	ra,80204694 <dasics_libcfg_free>
    80204b90:	00005797          	auipc	a5,0x5
    80204b94:	02078793          	addi	a5,a5,32 # 80209bb0 <main_prompt3>
    80204b98:	00005717          	auipc	a4,0x5
    80204b9c:	09870713          	addi	a4,a4,152 # 80209c30 <main_prompt4>
    80204ba0:	00070613          	mv	a2,a4
    80204ba4:	00078593          	mv	a1,a5
    80204ba8:	00a00513          	li	a0,10
    80204bac:	861ff0ef          	jal	ra,8020440c <dasics_libcfg_alloc>
    80204bb0:	00050793          	mv	a5,a0
    80204bb4:	fef42623          	sw	a5,-20(s0)
    80204bb8:	fec42783          	lw	a5,-20(s0)
    80204bbc:	00078513          	mv	a0,a5
    80204bc0:	ad5ff0ef          	jal	ra,80204694 <dasics_libcfg_free>
    80204bc4:	00005797          	auipc	a5,0x5
    80204bc8:	06c78793          	addi	a5,a5,108 # 80209c30 <main_prompt4>
    80204bcc:	00005717          	auipc	a4,0x5
    80204bd0:	0e470713          	addi	a4,a4,228 # 80209cb0 <_end>
    80204bd4:	00070613          	mv	a2,a4
    80204bd8:	00078593          	mv	a1,a5
    80204bdc:	00a00513          	li	a0,10
    80204be0:	82dff0ef          	jal	ra,8020440c <dasics_libcfg_alloc>
    80204be4:	00050793          	mv	a5,a0
    80204be8:	fef42623          	sw	a5,-20(s0)
    80204bec:	fec42783          	lw	a5,-20(s0)
    80204bf0:	00078513          	mv	a0,a5
    80204bf4:	aa1ff0ef          	jal	ra,80204694 <dasics_libcfg_free>
    80204bf8:	a81fb0ef          	jal	ra,80200678 <sys_exit>
    80204bfc:	00000013          	nop
    80204c00:	01813083          	ld	ra,24(sp)
    80204c04:	01013403          	ld	s0,16(sp)
    80204c08:	02010113          	addi	sp,sp,32
    80204c0c:	00008067          	ret

Disassembly of section .libtext:

0000000080204c10 <dasics_slib1>:
    80204c10:	fe010113          	addi	sp,sp,-32
    80204c14:	00113c23          	sd	ra,24(sp)
    80204c18:	00813823          	sd	s0,16(sp)
    80204c1c:	02010413          	addi	s0,sp,32
    80204c20:	00003517          	auipc	a0,0x3
    80204c24:	cf850513          	addi	a0,a0,-776 # 80207918 <pub_readonly>
    80204c28:	969fc0ef          	jal	ra,80201590 <printk>
    80204c2c:	00003797          	auipc	a5,0x3
    80204c30:	cec78793          	addi	a5,a5,-788 # 80207918 <pub_readonly>
    80204c34:	04200713          	li	a4,66
    80204c38:	00e787a3          	sb	a4,15(a5)
    80204c3c:	00003517          	auipc	a0,0x3
    80204c40:	d4450513          	addi	a0,a0,-700 # 80207980 <pub_rwbuffer>
    80204c44:	94dfc0ef          	jal	ra,80201590 <printk>
    80204c48:	00003797          	auipc	a5,0x3
    80204c4c:	c6878793          	addi	a5,a5,-920 # 802078b0 <secret>
    80204c50:	0037c783          	lbu	a5,3(a5)
    80204c54:	fef407a3          	sb	a5,-17(s0)
    80204c58:	00003797          	auipc	a5,0x3
    80204c5c:	c5878793          	addi	a5,a5,-936 # 802078b0 <secret>
    80204c60:	fef44703          	lbu	a4,-17(s0)
    80204c64:	00e781a3          	sb	a4,3(a5)
    80204c68:	00003797          	auipc	a5,0x3
    80204c6c:	cb078793          	addi	a5,a5,-848 # 80207918 <pub_readonly>
    80204c70:	00c7c703          	lbu	a4,12(a5)
    80204c74:	00003797          	auipc	a5,0x3
    80204c78:	d0c78793          	addi	a5,a5,-756 # 80207980 <pub_rwbuffer>
    80204c7c:	00e789a3          	sb	a4,19(a5)
    80204c80:	00003797          	auipc	a5,0x3
    80204c84:	d0078793          	addi	a5,a5,-768 # 80207980 <pub_rwbuffer>
    80204c88:	04200713          	li	a4,66
    80204c8c:	00e78aa3          	sb	a4,21(a5)
    80204c90:	00003797          	auipc	a5,0x3
    80204c94:	cf078793          	addi	a5,a5,-784 # 80207980 <pub_rwbuffer>
    80204c98:	04200713          	li	a4,66
    80204c9c:	00e78b23          	sb	a4,22(a5)
    80204ca0:	00003517          	auipc	a0,0x3
    80204ca4:	ce050513          	addi	a0,a0,-800 # 80207980 <pub_rwbuffer>
    80204ca8:	8e9fc0ef          	jal	ra,80201590 <printk>
    80204cac:	00000013          	nop
    80204cb0:	01813083          	ld	ra,24(sp)
    80204cb4:	01013403          	ld	s0,16(sp)
    80204cb8:	02010113          	addi	sp,sp,32
    80204cbc:	00008067          	ret

0000000080204cc0 <kmemcpy>:
    80204cc0:	fd010113          	addi	sp,sp,-48
    80204cc4:	02813423          	sd	s0,40(sp)
    80204cc8:	03010413          	addi	s0,sp,48
    80204ccc:	fea43423          	sd	a0,-24(s0)
    80204cd0:	feb43023          	sd	a1,-32(s0)
    80204cd4:	00060793          	mv	a5,a2
    80204cd8:	fcf42e23          	sw	a5,-36(s0)
    80204cdc:	0300006f          	j	80204d0c <kmemcpy+0x4c>
    80204ce0:	fe043703          	ld	a4,-32(s0)
    80204ce4:	00170793          	addi	a5,a4,1
    80204ce8:	fef43023          	sd	a5,-32(s0)
    80204cec:	fe843783          	ld	a5,-24(s0)
    80204cf0:	00178693          	addi	a3,a5,1
    80204cf4:	fed43423          	sd	a3,-24(s0)
    80204cf8:	00074703          	lbu	a4,0(a4)
    80204cfc:	00e78023          	sb	a4,0(a5)
    80204d00:	fdc42783          	lw	a5,-36(s0)
    80204d04:	fff7879b          	addiw	a5,a5,-1
    80204d08:	fcf42e23          	sw	a5,-36(s0)
    80204d0c:	fdc42783          	lw	a5,-36(s0)
    80204d10:	0007879b          	sext.w	a5,a5
    80204d14:	fc0796e3          	bnez	a5,80204ce0 <kmemcpy+0x20>
    80204d18:	00000013          	nop
    80204d1c:	00000013          	nop
    80204d20:	02813403          	ld	s0,40(sp)
    80204d24:	03010113          	addi	sp,sp,48
    80204d28:	00008067          	ret

0000000080204d2c <kmemset>:
    80204d2c:	fd010113          	addi	sp,sp,-48
    80204d30:	02813423          	sd	s0,40(sp)
    80204d34:	03010413          	addi	s0,sp,48
    80204d38:	fca43c23          	sd	a0,-40(s0)
    80204d3c:	00058793          	mv	a5,a1
    80204d40:	00060713          	mv	a4,a2
    80204d44:	fcf40ba3          	sb	a5,-41(s0)
    80204d48:	00070793          	mv	a5,a4
    80204d4c:	fcf42823          	sw	a5,-48(s0)
    80204d50:	fd843783          	ld	a5,-40(s0)
    80204d54:	fef43423          	sd	a5,-24(s0)
    80204d58:	0240006f          	j	80204d7c <kmemset+0x50>
    80204d5c:	fe843783          	ld	a5,-24(s0)
    80204d60:	00178713          	addi	a4,a5,1
    80204d64:	fee43423          	sd	a4,-24(s0)
    80204d68:	fd744703          	lbu	a4,-41(s0)
    80204d6c:	00e78023          	sb	a4,0(a5)
    80204d70:	fd042783          	lw	a5,-48(s0)
    80204d74:	fff7879b          	addiw	a5,a5,-1
    80204d78:	fcf42823          	sw	a5,-48(s0)
    80204d7c:	fd042783          	lw	a5,-48(s0)
    80204d80:	0007879b          	sext.w	a5,a5
    80204d84:	fc079ce3          	bnez	a5,80204d5c <kmemset+0x30>
    80204d88:	00000013          	nop
    80204d8c:	00000013          	nop
    80204d90:	02813403          	ld	s0,40(sp)
    80204d94:	03010113          	addi	sp,sp,48
    80204d98:	00008067          	ret

0000000080204d9c <kbzero>:
    80204d9c:	fe010113          	addi	sp,sp,-32
    80204da0:	00113c23          	sd	ra,24(sp)
    80204da4:	00813823          	sd	s0,16(sp)
    80204da8:	02010413          	addi	s0,sp,32
    80204dac:	fea43423          	sd	a0,-24(s0)
    80204db0:	00058793          	mv	a5,a1
    80204db4:	fef42223          	sw	a5,-28(s0)
    80204db8:	fe442783          	lw	a5,-28(s0)
    80204dbc:	00078613          	mv	a2,a5
    80204dc0:	00000593          	li	a1,0
    80204dc4:	fe843503          	ld	a0,-24(s0)
    80204dc8:	f65ff0ef          	jal	ra,80204d2c <kmemset>
    80204dcc:	00000013          	nop
    80204dd0:	01813083          	ld	ra,24(sp)
    80204dd4:	01013403          	ld	s0,16(sp)
    80204dd8:	02010113          	addi	sp,sp,32
    80204ddc:	00008067          	ret

0000000080204de0 <kstrcmp>:
    80204de0:	fe010113          	addi	sp,sp,-32
    80204de4:	00813c23          	sd	s0,24(sp)
    80204de8:	02010413          	addi	s0,sp,32
    80204dec:	fea43423          	sd	a0,-24(s0)
    80204df0:	feb43023          	sd	a1,-32(s0)
    80204df4:	0540006f          	j	80204e48 <kstrcmp+0x68>
    80204df8:	fe843783          	ld	a5,-24(s0)
    80204dfc:	0007c703          	lbu	a4,0(a5)
    80204e00:	fe043783          	ld	a5,-32(s0)
    80204e04:	0007c783          	lbu	a5,0(a5)
    80204e08:	02f70463          	beq	a4,a5,80204e30 <kstrcmp+0x50>
    80204e0c:	fe843783          	ld	a5,-24(s0)
    80204e10:	0007c783          	lbu	a5,0(a5)
    80204e14:	0007871b          	sext.w	a4,a5
    80204e18:	fe043783          	ld	a5,-32(s0)
    80204e1c:	0007c783          	lbu	a5,0(a5)
    80204e20:	0007879b          	sext.w	a5,a5
    80204e24:	40f707bb          	subw	a5,a4,a5
    80204e28:	0007879b          	sext.w	a5,a5
    80204e2c:	0540006f          	j	80204e80 <kstrcmp+0xa0>
    80204e30:	fe843783          	ld	a5,-24(s0)
    80204e34:	00178793          	addi	a5,a5,1
    80204e38:	fef43423          	sd	a5,-24(s0)
    80204e3c:	fe043783          	ld	a5,-32(s0)
    80204e40:	00178793          	addi	a5,a5,1
    80204e44:	fef43023          	sd	a5,-32(s0)
    80204e48:	fe843783          	ld	a5,-24(s0)
    80204e4c:	0007c783          	lbu	a5,0(a5)
    80204e50:	00078863          	beqz	a5,80204e60 <kstrcmp+0x80>
    80204e54:	fe043783          	ld	a5,-32(s0)
    80204e58:	0007c783          	lbu	a5,0(a5)
    80204e5c:	f8079ee3          	bnez	a5,80204df8 <kstrcmp+0x18>
    80204e60:	fe843783          	ld	a5,-24(s0)
    80204e64:	0007c783          	lbu	a5,0(a5)
    80204e68:	0007871b          	sext.w	a4,a5
    80204e6c:	fe043783          	ld	a5,-32(s0)
    80204e70:	0007c783          	lbu	a5,0(a5)
    80204e74:	0007879b          	sext.w	a5,a5
    80204e78:	40f707bb          	subw	a5,a4,a5
    80204e7c:	0007879b          	sext.w	a5,a5
    80204e80:	00078513          	mv	a0,a5
    80204e84:	01813403          	ld	s0,24(sp)
    80204e88:	02010113          	addi	sp,sp,32
    80204e8c:	00008067          	ret

0000000080204e90 <kstrcpy>:
    80204e90:	fd010113          	addi	sp,sp,-48
    80204e94:	02813423          	sd	s0,40(sp)
    80204e98:	03010413          	addi	s0,sp,48
    80204e9c:	fca43c23          	sd	a0,-40(s0)
    80204ea0:	fcb43823          	sd	a1,-48(s0)
    80204ea4:	fd843783          	ld	a5,-40(s0)
    80204ea8:	fef43423          	sd	a5,-24(s0)
    80204eac:	0240006f          	j	80204ed0 <kstrcpy+0x40>
    80204eb0:	fd043703          	ld	a4,-48(s0)
    80204eb4:	00170793          	addi	a5,a4,1
    80204eb8:	fcf43823          	sd	a5,-48(s0)
    80204ebc:	fd843783          	ld	a5,-40(s0)
    80204ec0:	00178693          	addi	a3,a5,1
    80204ec4:	fcd43c23          	sd	a3,-40(s0)
    80204ec8:	00074703          	lbu	a4,0(a4)
    80204ecc:	00e78023          	sb	a4,0(a5)
    80204ed0:	fd043783          	ld	a5,-48(s0)
    80204ed4:	0007c783          	lbu	a5,0(a5)
    80204ed8:	fc079ce3          	bnez	a5,80204eb0 <kstrcpy+0x20>
    80204edc:	fd843783          	ld	a5,-40(s0)
    80204ee0:	00078023          	sb	zero,0(a5)
    80204ee4:	fe843783          	ld	a5,-24(s0)
    80204ee8:	00078513          	mv	a0,a5
    80204eec:	02813403          	ld	s0,40(sp)
    80204ef0:	03010113          	addi	sp,sp,48
    80204ef4:	00008067          	ret

0000000080204ef8 <kstrcat>:
    80204ef8:	fd010113          	addi	sp,sp,-48
    80204efc:	02813423          	sd	s0,40(sp)
    80204f00:	03010413          	addi	s0,sp,48
    80204f04:	fca43c23          	sd	a0,-40(s0)
    80204f08:	fcb43823          	sd	a1,-48(s0)
    80204f0c:	fd843783          	ld	a5,-40(s0)
    80204f10:	fef43423          	sd	a5,-24(s0)
    80204f14:	0100006f          	j	80204f24 <kstrcat+0x2c>
    80204f18:	fd843783          	ld	a5,-40(s0)
    80204f1c:	00178793          	addi	a5,a5,1
    80204f20:	fcf43c23          	sd	a5,-40(s0)
    80204f24:	fd843783          	ld	a5,-40(s0)
    80204f28:	0007c783          	lbu	a5,0(a5)
    80204f2c:	fe0796e3          	bnez	a5,80204f18 <kstrcat+0x20>
    80204f30:	0240006f          	j	80204f54 <kstrcat+0x5c>
    80204f34:	fd043703          	ld	a4,-48(s0)
    80204f38:	00170793          	addi	a5,a4,1
    80204f3c:	fcf43823          	sd	a5,-48(s0)
    80204f40:	fd843783          	ld	a5,-40(s0)
    80204f44:	00178693          	addi	a3,a5,1
    80204f48:	fcd43c23          	sd	a3,-40(s0)
    80204f4c:	00074703          	lbu	a4,0(a4)
    80204f50:	00e78023          	sb	a4,0(a5)
    80204f54:	fd043783          	ld	a5,-48(s0)
    80204f58:	0007c783          	lbu	a5,0(a5)
    80204f5c:	fc079ce3          	bnez	a5,80204f34 <kstrcat+0x3c>
    80204f60:	fd843783          	ld	a5,-40(s0)
    80204f64:	00078023          	sb	zero,0(a5)
    80204f68:	fe843783          	ld	a5,-24(s0)
    80204f6c:	00078513          	mv	a0,a5
    80204f70:	02813403          	ld	s0,40(sp)
    80204f74:	03010113          	addi	sp,sp,48
    80204f78:	00008067          	ret

0000000080204f7c <kstrlen>:
    80204f7c:	fd010113          	addi	sp,sp,-48
    80204f80:	02813423          	sd	s0,40(sp)
    80204f84:	03010413          	addi	s0,sp,48
    80204f88:	fca43c23          	sd	a0,-40(s0)
    80204f8c:	fe042623          	sw	zero,-20(s0)
    80204f90:	0100006f          	j	80204fa0 <kstrlen+0x24>
    80204f94:	fec42783          	lw	a5,-20(s0)
    80204f98:	0017879b          	addiw	a5,a5,1
    80204f9c:	fef42623          	sw	a5,-20(s0)
    80204fa0:	fec42783          	lw	a5,-20(s0)
    80204fa4:	fd843703          	ld	a4,-40(s0)
    80204fa8:	00f707b3          	add	a5,a4,a5
    80204fac:	0007c783          	lbu	a5,0(a5)
    80204fb0:	fe0792e3          	bnez	a5,80204f94 <kstrlen+0x18>
    80204fb4:	fec42783          	lw	a5,-20(s0)
    80204fb8:	00078513          	mv	a0,a5
    80204fbc:	02813403          	ld	s0,40(sp)
    80204fc0:	03010113          	addi	sp,sp,48
    80204fc4:	00008067          	ret

0000000080204fc8 <vt100_move_cursor>:
    80204fc8:	fe010113          	addi	sp,sp,-32
    80204fcc:	00113c23          	sd	ra,24(sp)
    80204fd0:	00813823          	sd	s0,16(sp)
    80204fd4:	02010413          	addi	s0,sp,32
    80204fd8:	00050793          	mv	a5,a0
    80204fdc:	00058713          	mv	a4,a1
    80204fe0:	fef42623          	sw	a5,-20(s0)
    80204fe4:	00070793          	mv	a5,a4
    80204fe8:	fef42423          	sw	a5,-24(s0)
    80204fec:	00000693          	li	a3,0
    80204ff0:	00000613          	li	a2,0
    80204ff4:	00000593          	li	a1,0
    80204ff8:	00000513          	li	a0,0
    80204ffc:	8d9fe0ef          	jal	ra,802038d4 <dasics_smaincall>
    80205000:	fec42703          	lw	a4,-20(s0)
    80205004:	fe842783          	lw	a5,-24(s0)
    80205008:	00070693          	mv	a3,a4
    8020500c:	00078613          	mv	a2,a5
    80205010:	01b00593          	li	a1,27
    80205014:	00001517          	auipc	a0,0x1
    80205018:	60450513          	addi	a0,a0,1540 # 80206618 <__FUNCTION__.0+0x20>
    8020501c:	d74fc0ef          	jal	ra,80201590 <printk>
    80205020:	fec42783          	lw	a5,-20(s0)
    80205024:	fe842703          	lw	a4,-24(s0)
    80205028:	00000693          	li	a3,0
    8020502c:	00070613          	mv	a2,a4
    80205030:	00078593          	mv	a1,a5
    80205034:	00600513          	li	a0,6
    80205038:	89dfe0ef          	jal	ra,802038d4 <dasics_smaincall>
    8020503c:	00000693          	li	a3,0
    80205040:	00000613          	li	a2,0
    80205044:	00000593          	li	a1,0
    80205048:	00100513          	li	a0,1
    8020504c:	889fe0ef          	jal	ra,802038d4 <dasics_smaincall>
    80205050:	00000013          	nop
    80205054:	01813083          	ld	ra,24(sp)
    80205058:	01013403          	ld	s0,16(sp)
    8020505c:	02010113          	addi	sp,sp,32
    80205060:	00008067          	ret

0000000080205064 <init_screen>:
    80205064:	ff010113          	addi	sp,sp,-16
    80205068:	00113423          	sd	ra,8(sp)
    8020506c:	00813023          	sd	s0,0(sp)
    80205070:	01010413          	addi	s0,sp,16
    80205074:	3bc000ef          	jal	ra,80205430 <vt100_clear>
    80205078:	00000013          	nop
    8020507c:	00813083          	ld	ra,8(sp)
    80205080:	00013403          	ld	s0,0(sp)
    80205084:	01010113          	addi	sp,sp,16
    80205088:	00008067          	ret

000000008020508c <screen_clear>:
    8020508c:	fe010113          	addi	sp,sp,-32
    80205090:	00113c23          	sd	ra,24(sp)
    80205094:	00813823          	sd	s0,16(sp)
    80205098:	02010413          	addi	s0,sp,32
    8020509c:	fe042623          	sw	zero,-20(s0)
    802050a0:	06c0006f          	j	8020510c <screen_clear+0x80>
    802050a4:	fe042423          	sw	zero,-24(s0)
    802050a8:	0480006f          	j	802050f0 <screen_clear+0x64>
    802050ac:	fec42703          	lw	a4,-20(s0)
    802050b0:	00070793          	mv	a5,a4
    802050b4:	0027979b          	slliw	a5,a5,0x2
    802050b8:	00e787bb          	addw	a5,a5,a4
    802050bc:	0047979b          	slliw	a5,a5,0x4
    802050c0:	0007879b          	sext.w	a5,a5
    802050c4:	fe842703          	lw	a4,-24(s0)
    802050c8:	00f707bb          	addw	a5,a4,a5
    802050cc:	0007879b          	sext.w	a5,a5
    802050d0:	00003717          	auipc	a4,0x3
    802050d4:	92070713          	addi	a4,a4,-1760 # 802079f0 <new_screen>
    802050d8:	00f707b3          	add	a5,a4,a5
    802050dc:	02000713          	li	a4,32
    802050e0:	00e78023          	sb	a4,0(a5)
    802050e4:	fe842783          	lw	a5,-24(s0)
    802050e8:	0017879b          	addiw	a5,a5,1
    802050ec:	fef42423          	sw	a5,-24(s0)
    802050f0:	fe842783          	lw	a5,-24(s0)
    802050f4:	0007871b          	sext.w	a4,a5
    802050f8:	04f00793          	li	a5,79
    802050fc:	fae7d8e3          	bge	a5,a4,802050ac <screen_clear+0x20>
    80205100:	fec42783          	lw	a5,-20(s0)
    80205104:	0017879b          	addiw	a5,a5,1
    80205108:	fef42623          	sw	a5,-20(s0)
    8020510c:	fec42783          	lw	a5,-20(s0)
    80205110:	0007871b          	sext.w	a4,a5
    80205114:	03100793          	li	a5,49
    80205118:	f8e7d6e3          	bge	a5,a4,802050a4 <screen_clear+0x18>
    8020511c:	00003797          	auipc	a5,0x3
    80205120:	8cc78793          	addi	a5,a5,-1844 # 802079e8 <screen_cursor_x>
    80205124:	00100713          	li	a4,1
    80205128:	00e7a023          	sw	a4,0(a5)
    8020512c:	00003797          	auipc	a5,0x3
    80205130:	8c078793          	addi	a5,a5,-1856 # 802079ec <screen_cursor_y>
    80205134:	00100713          	li	a4,1
    80205138:	00e7a023          	sw	a4,0(a5)
    8020513c:	018000ef          	jal	ra,80205154 <screen_reflush>
    80205140:	00000013          	nop
    80205144:	01813083          	ld	ra,24(sp)
    80205148:	01013403          	ld	s0,16(sp)
    8020514c:	02010113          	addi	sp,sp,32
    80205150:	00008067          	ret

0000000080205154 <screen_reflush>:
    80205154:	fe010113          	addi	sp,sp,-32
    80205158:	00113c23          	sd	ra,24(sp)
    8020515c:	00813823          	sd	s0,16(sp)
    80205160:	02010413          	addi	s0,sp,32
    80205164:	fe042623          	sw	zero,-20(s0)
    80205168:	1780006f          	j	802052e0 <screen_reflush+0x18c>
    8020516c:	fe042423          	sw	zero,-24(s0)
    80205170:	1540006f          	j	802052c4 <screen_reflush+0x170>
    80205174:	fec42703          	lw	a4,-20(s0)
    80205178:	00070793          	mv	a5,a4
    8020517c:	0027979b          	slliw	a5,a5,0x2
    80205180:	00e787bb          	addw	a5,a5,a4
    80205184:	0047979b          	slliw	a5,a5,0x4
    80205188:	0007879b          	sext.w	a5,a5
    8020518c:	fe842703          	lw	a4,-24(s0)
    80205190:	00f707bb          	addw	a5,a4,a5
    80205194:	0007879b          	sext.w	a5,a5
    80205198:	00003717          	auipc	a4,0x3
    8020519c:	85870713          	addi	a4,a4,-1960 # 802079f0 <new_screen>
    802051a0:	00f707b3          	add	a5,a4,a5
    802051a4:	0007c683          	lbu	a3,0(a5)
    802051a8:	fec42703          	lw	a4,-20(s0)
    802051ac:	00070793          	mv	a5,a4
    802051b0:	0027979b          	slliw	a5,a5,0x2
    802051b4:	00e787bb          	addw	a5,a5,a4
    802051b8:	0047979b          	slliw	a5,a5,0x4
    802051bc:	0007879b          	sext.w	a5,a5
    802051c0:	fe842703          	lw	a4,-24(s0)
    802051c4:	00f707bb          	addw	a5,a4,a5
    802051c8:	0007879b          	sext.w	a5,a5
    802051cc:	00003717          	auipc	a4,0x3
    802051d0:	7c470713          	addi	a4,a4,1988 # 80208990 <old_screen>
    802051d4:	00f707b3          	add	a5,a4,a5
    802051d8:	0007c783          	lbu	a5,0(a5)
    802051dc:	00068713          	mv	a4,a3
    802051e0:	0cf70c63          	beq	a4,a5,802052b8 <screen_reflush+0x164>
    802051e4:	fe842783          	lw	a5,-24(s0)
    802051e8:	0017879b          	addiw	a5,a5,1
    802051ec:	0007871b          	sext.w	a4,a5
    802051f0:	fec42783          	lw	a5,-20(s0)
    802051f4:	0017879b          	addiw	a5,a5,1
    802051f8:	0007879b          	sext.w	a5,a5
    802051fc:	00078593          	mv	a1,a5
    80205200:	00070513          	mv	a0,a4
    80205204:	dc5ff0ef          	jal	ra,80204fc8 <vt100_move_cursor>
    80205208:	fec42703          	lw	a4,-20(s0)
    8020520c:	00070793          	mv	a5,a4
    80205210:	0027979b          	slliw	a5,a5,0x2
    80205214:	00e787bb          	addw	a5,a5,a4
    80205218:	0047979b          	slliw	a5,a5,0x4
    8020521c:	0007879b          	sext.w	a5,a5
    80205220:	fe842703          	lw	a4,-24(s0)
    80205224:	00f707bb          	addw	a5,a4,a5
    80205228:	0007879b          	sext.w	a5,a5
    8020522c:	00002717          	auipc	a4,0x2
    80205230:	7c470713          	addi	a4,a4,1988 # 802079f0 <new_screen>
    80205234:	00f707b3          	add	a5,a4,a5
    80205238:	0007c783          	lbu	a5,0(a5)
    8020523c:	00000693          	li	a3,0
    80205240:	00000613          	li	a2,0
    80205244:	00078593          	mv	a1,a5
    80205248:	00300513          	li	a0,3
    8020524c:	e88fe0ef          	jal	ra,802038d4 <dasics_smaincall>
    80205250:	fec42703          	lw	a4,-20(s0)
    80205254:	00070793          	mv	a5,a4
    80205258:	0027979b          	slliw	a5,a5,0x2
    8020525c:	00e787bb          	addw	a5,a5,a4
    80205260:	0047979b          	slliw	a5,a5,0x4
    80205264:	0007879b          	sext.w	a5,a5
    80205268:	fe842703          	lw	a4,-24(s0)
    8020526c:	00f707bb          	addw	a5,a4,a5
    80205270:	0007869b          	sext.w	a3,a5
    80205274:	fec42703          	lw	a4,-20(s0)
    80205278:	00070793          	mv	a5,a4
    8020527c:	0027979b          	slliw	a5,a5,0x2
    80205280:	00e787bb          	addw	a5,a5,a4
    80205284:	0047979b          	slliw	a5,a5,0x4
    80205288:	0007879b          	sext.w	a5,a5
    8020528c:	fe842703          	lw	a4,-24(s0)
    80205290:	00f707bb          	addw	a5,a4,a5
    80205294:	0007879b          	sext.w	a5,a5
    80205298:	00002717          	auipc	a4,0x2
    8020529c:	75870713          	addi	a4,a4,1880 # 802079f0 <new_screen>
    802052a0:	00d70733          	add	a4,a4,a3
    802052a4:	00074703          	lbu	a4,0(a4)
    802052a8:	00003697          	auipc	a3,0x3
    802052ac:	6e868693          	addi	a3,a3,1768 # 80208990 <old_screen>
    802052b0:	00f687b3          	add	a5,a3,a5
    802052b4:	00e78023          	sb	a4,0(a5)
    802052b8:	fe842783          	lw	a5,-24(s0)
    802052bc:	0017879b          	addiw	a5,a5,1
    802052c0:	fef42423          	sw	a5,-24(s0)
    802052c4:	fe842783          	lw	a5,-24(s0)
    802052c8:	0007871b          	sext.w	a4,a5
    802052cc:	04f00793          	li	a5,79
    802052d0:	eae7d2e3          	bge	a5,a4,80205174 <screen_reflush+0x20>
    802052d4:	fec42783          	lw	a5,-20(s0)
    802052d8:	0017879b          	addiw	a5,a5,1
    802052dc:	fef42623          	sw	a5,-20(s0)
    802052e0:	fec42783          	lw	a5,-20(s0)
    802052e4:	0007871b          	sext.w	a4,a5
    802052e8:	03100793          	li	a5,49
    802052ec:	e8e7d0e3          	bge	a5,a4,8020516c <screen_reflush+0x18>
    802052f0:	00002797          	auipc	a5,0x2
    802052f4:	6f878793          	addi	a5,a5,1784 # 802079e8 <screen_cursor_x>
    802052f8:	0007a703          	lw	a4,0(a5)
    802052fc:	00002797          	auipc	a5,0x2
    80205300:	6f078793          	addi	a5,a5,1776 # 802079ec <screen_cursor_y>
    80205304:	0007a783          	lw	a5,0(a5)
    80205308:	00078593          	mv	a1,a5
    8020530c:	00070513          	mv	a0,a4
    80205310:	cb9ff0ef          	jal	ra,80204fc8 <vt100_move_cursor>
    80205314:	00000013          	nop
    80205318:	01813083          	ld	ra,24(sp)
    8020531c:	01013403          	ld	s0,16(sp)
    80205320:	02010113          	addi	sp,sp,32
    80205324:	00008067          	ret

0000000080205328 <screen_write>:
    80205328:	fd010113          	addi	sp,sp,-48
    8020532c:	02113423          	sd	ra,40(sp)
    80205330:	02813023          	sd	s0,32(sp)
    80205334:	03010413          	addi	s0,sp,48
    80205338:	fca43c23          	sd	a0,-40(s0)
    8020533c:	fe042623          	sw	zero,-20(s0)
    80205340:	fd843503          	ld	a0,-40(s0)
    80205344:	c39ff0ef          	jal	ra,80204f7c <kstrlen>
    80205348:	00050793          	mv	a5,a0
    8020534c:	fef42423          	sw	a5,-24(s0)
    80205350:	fe042623          	sw	zero,-20(s0)
    80205354:	0280006f          	j	8020537c <screen_write+0x54>
    80205358:	fec42783          	lw	a5,-20(s0)
    8020535c:	fd843703          	ld	a4,-40(s0)
    80205360:	00f707b3          	add	a5,a4,a5
    80205364:	0007c783          	lbu	a5,0(a5)
    80205368:	00078513          	mv	a0,a5
    8020536c:	0f8000ef          	jal	ra,80205464 <screen_write_ch>
    80205370:	fec42783          	lw	a5,-20(s0)
    80205374:	0017879b          	addiw	a5,a5,1
    80205378:	fef42623          	sw	a5,-20(s0)
    8020537c:	fec42703          	lw	a4,-20(s0)
    80205380:	fe842783          	lw	a5,-24(s0)
    80205384:	0007071b          	sext.w	a4,a4
    80205388:	0007879b          	sext.w	a5,a5
    8020538c:	fcf746e3          	blt	a4,a5,80205358 <screen_write+0x30>
    80205390:	00000013          	nop
    80205394:	00000013          	nop
    80205398:	02813083          	ld	ra,40(sp)
    8020539c:	02013403          	ld	s0,32(sp)
    802053a0:	03010113          	addi	sp,sp,48
    802053a4:	00008067          	ret

00000000802053a8 <screen_move_cursor>:
    802053a8:	fe010113          	addi	sp,sp,-32
    802053ac:	00113c23          	sd	ra,24(sp)
    802053b0:	00813823          	sd	s0,16(sp)
    802053b4:	02010413          	addi	s0,sp,32
    802053b8:	00050793          	mv	a5,a0
    802053bc:	00058713          	mv	a4,a1
    802053c0:	fef42623          	sw	a5,-20(s0)
    802053c4:	00070793          	mv	a5,a4
    802053c8:	fef42423          	sw	a5,-24(s0)
    802053cc:	00002797          	auipc	a5,0x2
    802053d0:	61c78793          	addi	a5,a5,1564 # 802079e8 <screen_cursor_x>
    802053d4:	fec42703          	lw	a4,-20(s0)
    802053d8:	00e7a023          	sw	a4,0(a5)
    802053dc:	00002797          	auipc	a5,0x2
    802053e0:	61078793          	addi	a5,a5,1552 # 802079ec <screen_cursor_y>
    802053e4:	fe842703          	lw	a4,-24(s0)
    802053e8:	00e7a023          	sw	a4,0(a5)
    802053ec:	00002797          	auipc	a5,0x2
    802053f0:	5fc78793          	addi	a5,a5,1532 # 802079e8 <screen_cursor_x>
    802053f4:	0007a783          	lw	a5,0(a5)
    802053f8:	00078713          	mv	a4,a5
    802053fc:	00002797          	auipc	a5,0x2
    80205400:	5f078793          	addi	a5,a5,1520 # 802079ec <screen_cursor_y>
    80205404:	0007a783          	lw	a5,0(a5)
    80205408:	00000693          	li	a3,0
    8020540c:	00078613          	mv	a2,a5
    80205410:	00070593          	mv	a1,a4
    80205414:	00600513          	li	a0,6
    80205418:	cbcfe0ef          	jal	ra,802038d4 <dasics_smaincall>
    8020541c:	00000013          	nop
    80205420:	01813083          	ld	ra,24(sp)
    80205424:	01013403          	ld	s0,16(sp)
    80205428:	02010113          	addi	sp,sp,32
    8020542c:	00008067          	ret

0000000080205430 <vt100_clear>:
    80205430:	ff010113          	addi	sp,sp,-16
    80205434:	00113423          	sd	ra,8(sp)
    80205438:	00813023          	sd	s0,0(sp)
    8020543c:	01010413          	addi	s0,sp,16
    80205440:	01b00593          	li	a1,27
    80205444:	00001517          	auipc	a0,0x1
    80205448:	1e450513          	addi	a0,a0,484 # 80206628 <__FUNCTION__.0+0x30>
    8020544c:	944fc0ef          	jal	ra,80201590 <printk>
    80205450:	00000013          	nop
    80205454:	00813083          	ld	ra,8(sp)
    80205458:	00013403          	ld	s0,0(sp)
    8020545c:	01010113          	addi	sp,sp,16
    80205460:	00008067          	ret

0000000080205464 <screen_write_ch>:
    80205464:	fe010113          	addi	sp,sp,-32
    80205468:	00113c23          	sd	ra,24(sp)
    8020546c:	00813823          	sd	s0,16(sp)
    80205470:	02010413          	addi	s0,sp,32
    80205474:	00050793          	mv	a5,a0
    80205478:	fef407a3          	sb	a5,-17(s0)
    8020547c:	fef44783          	lbu	a5,-17(s0)
    80205480:	0ff7f713          	zext.b	a4,a5
    80205484:	00a00793          	li	a5,10
    80205488:	02f71c63          	bne	a4,a5,802054c0 <screen_write_ch+0x5c>
    8020548c:	00002797          	auipc	a5,0x2
    80205490:	55c78793          	addi	a5,a5,1372 # 802079e8 <screen_cursor_x>
    80205494:	00100713          	li	a4,1
    80205498:	00e7a023          	sw	a4,0(a5)
    8020549c:	00002797          	auipc	a5,0x2
    802054a0:	55078793          	addi	a5,a5,1360 # 802079ec <screen_cursor_y>
    802054a4:	0007a783          	lw	a5,0(a5)
    802054a8:	0017879b          	addiw	a5,a5,1
    802054ac:	0007871b          	sext.w	a4,a5
    802054b0:	00002797          	auipc	a5,0x2
    802054b4:	53c78793          	addi	a5,a5,1340 # 802079ec <screen_cursor_y>
    802054b8:	00e7a023          	sw	a4,0(a5)
    802054bc:	0800006f          	j	8020553c <screen_write_ch+0xd8>
    802054c0:	00002797          	auipc	a5,0x2
    802054c4:	52c78793          	addi	a5,a5,1324 # 802079ec <screen_cursor_y>
    802054c8:	0007a783          	lw	a5,0(a5)
    802054cc:	fff7879b          	addiw	a5,a5,-1
    802054d0:	0007879b          	sext.w	a5,a5
    802054d4:	00078713          	mv	a4,a5
    802054d8:	00070793          	mv	a5,a4
    802054dc:	0027979b          	slliw	a5,a5,0x2
    802054e0:	00e787bb          	addw	a5,a5,a4
    802054e4:	0047979b          	slliw	a5,a5,0x4
    802054e8:	0007871b          	sext.w	a4,a5
    802054ec:	00002797          	auipc	a5,0x2
    802054f0:	4fc78793          	addi	a5,a5,1276 # 802079e8 <screen_cursor_x>
    802054f4:	0007a783          	lw	a5,0(a5)
    802054f8:	fff7879b          	addiw	a5,a5,-1
    802054fc:	0007879b          	sext.w	a5,a5
    80205500:	00f707bb          	addw	a5,a4,a5
    80205504:	0007879b          	sext.w	a5,a5
    80205508:	00002717          	auipc	a4,0x2
    8020550c:	4e870713          	addi	a4,a4,1256 # 802079f0 <new_screen>
    80205510:	00f707b3          	add	a5,a4,a5
    80205514:	fef44703          	lbu	a4,-17(s0)
    80205518:	00e78023          	sb	a4,0(a5)
    8020551c:	00002797          	auipc	a5,0x2
    80205520:	4cc78793          	addi	a5,a5,1228 # 802079e8 <screen_cursor_x>
    80205524:	0007a783          	lw	a5,0(a5)
    80205528:	0017879b          	addiw	a5,a5,1
    8020552c:	0007871b          	sext.w	a4,a5
    80205530:	00002797          	auipc	a5,0x2
    80205534:	4b878793          	addi	a5,a5,1208 # 802079e8 <screen_cursor_x>
    80205538:	00e7a023          	sw	a4,0(a5)
    8020553c:	00002797          	auipc	a5,0x2
    80205540:	4ac78793          	addi	a5,a5,1196 # 802079e8 <screen_cursor_x>
    80205544:	0007a783          	lw	a5,0(a5)
    80205548:	00078713          	mv	a4,a5
    8020554c:	00002797          	auipc	a5,0x2
    80205550:	4a078793          	addi	a5,a5,1184 # 802079ec <screen_cursor_y>
    80205554:	0007a783          	lw	a5,0(a5)
    80205558:	00000693          	li	a3,0
    8020555c:	00078613          	mv	a2,a5
    80205560:	00070593          	mv	a1,a4
    80205564:	00600513          	li	a0,6
    80205568:	b6cfe0ef          	jal	ra,802038d4 <dasics_smaincall>
    8020556c:	00000013          	nop
    80205570:	01813083          	ld	ra,24(sp)
    80205574:	01013403          	ld	s0,16(sp)
    80205578:	02010113          	addi	sp,sp,32
    8020557c:	00008067          	ret

0000000080205580 <dasics_ulib2>:
    80205580:	ff010113          	addi	sp,sp,-16
    80205584:	00813423          	sd	s0,8(sp)
    80205588:	01010413          	addi	s0,sp,16
    8020558c:	00000013          	nop
    80205590:	00813403          	ld	s0,8(sp)
    80205594:	01010113          	addi	sp,sp,16
    80205598:	00008067          	ret

000000008020559c <dasics_ulib1>:
    8020559c:	fe010113          	addi	sp,sp,-32
    802055a0:	00113c23          	sd	ra,24(sp)
    802055a4:	00813823          	sd	s0,16(sp)
    802055a8:	02010413          	addi	s0,sp,32
    802055ac:	00004797          	auipc	a5,0x4
    802055b0:	40478793          	addi	a5,a5,1028 # 802099b0 <pub_readonly>
    802055b4:	00000693          	li	a3,0
    802055b8:	00000613          	li	a2,0
    802055bc:	00078593          	mv	a1,a5
    802055c0:	00a00513          	li	a0,10
    802055c4:	b61fe0ef          	jal	ra,80204124 <dasics_umaincall>
    802055c8:	00004797          	auipc	a5,0x4
    802055cc:	3e878793          	addi	a5,a5,1000 # 802099b0 <pub_readonly>
    802055d0:	04200713          	li	a4,66
    802055d4:	00e787a3          	sb	a4,15(a5)
    802055d8:	00004797          	auipc	a5,0x4
    802055dc:	45878793          	addi	a5,a5,1112 # 80209a30 <pub_rwbuffer>
    802055e0:	00000693          	li	a3,0
    802055e4:	00000613          	li	a2,0
    802055e8:	00078593          	mv	a1,a5
    802055ec:	00a00513          	li	a0,10
    802055f0:	b35fe0ef          	jal	ra,80204124 <dasics_umaincall>
    802055f4:	00004797          	auipc	a5,0x4
    802055f8:	33c78793          	addi	a5,a5,828 # 80209930 <secret>
    802055fc:	0037c783          	lbu	a5,3(a5)
    80205600:	fef407a3          	sb	a5,-17(s0)
    80205604:	00004797          	auipc	a5,0x4
    80205608:	32c78793          	addi	a5,a5,812 # 80209930 <secret>
    8020560c:	fef44703          	lbu	a4,-17(s0)
    80205610:	00e781a3          	sb	a4,3(a5)
    80205614:	bfcff0ef          	jal	ra,80204a10 <dasics_main>
    80205618:	f69ff0ef          	jal	ra,80205580 <dasics_ulib2>
    8020561c:	00004797          	auipc	a5,0x4
    80205620:	39478793          	addi	a5,a5,916 # 802099b0 <pub_readonly>
    80205624:	00c7c703          	lbu	a4,12(a5)
    80205628:	00004797          	auipc	a5,0x4
    8020562c:	40878793          	addi	a5,a5,1032 # 80209a30 <pub_rwbuffer>
    80205630:	00e789a3          	sb	a4,19(a5)
    80205634:	00004797          	auipc	a5,0x4
    80205638:	3fc78793          	addi	a5,a5,1020 # 80209a30 <pub_rwbuffer>
    8020563c:	04200713          	li	a4,66
    80205640:	00e78aa3          	sb	a4,21(a5)
    80205644:	00004797          	auipc	a5,0x4
    80205648:	3ec78793          	addi	a5,a5,1004 # 80209a30 <pub_rwbuffer>
    8020564c:	04200713          	li	a4,66
    80205650:	00e78b23          	sb	a4,22(a5)
    80205654:	00004797          	auipc	a5,0x4
    80205658:	3dc78793          	addi	a5,a5,988 # 80209a30 <pub_rwbuffer>
    8020565c:	00000693          	li	a3,0
    80205660:	00000613          	li	a2,0
    80205664:	00078593          	mv	a1,a5
    80205668:	00a00513          	li	a0,10
    8020566c:	ab9fe0ef          	jal	ra,80204124 <dasics_umaincall>
    80205670:	00000013          	nop
    80205674:	01813083          	ld	ra,24(sp)
    80205678:	01013403          	ld	s0,16(sp)
    8020567c:	02010113          	addi	sp,sp,32
    80205680:	00008067          	ret

0000000080205684 <mini_itoa>:
    80205684:	fb010113          	addi	sp,sp,-80
    80205688:	04813423          	sd	s0,72(sp)
    8020568c:	05010413          	addi	s0,sp,80
    80205690:	fca43423          	sd	a0,-56(s0)
    80205694:	fae43823          	sd	a4,-80(s0)
    80205698:	00078713          	mv	a4,a5
    8020569c:	00058793          	mv	a5,a1
    802056a0:	fcf42223          	sw	a5,-60(s0)
    802056a4:	00060793          	mv	a5,a2
    802056a8:	fcf42023          	sw	a5,-64(s0)
    802056ac:	00068793          	mv	a5,a3
    802056b0:	faf42e23          	sw	a5,-68(s0)
    802056b4:	00070793          	mv	a5,a4
    802056b8:	faf42c23          	sw	a5,-72(s0)
    802056bc:	fb043783          	ld	a5,-80(s0)
    802056c0:	fef43423          	sd	a5,-24(s0)
    802056c4:	fe042223          	sw	zero,-28(s0)
    802056c8:	fc442783          	lw	a5,-60(s0)
    802056cc:	0007871b          	sext.w	a4,a5
    802056d0:	01000793          	li	a5,16
    802056d4:	00e7f663          	bgeu	a5,a4,802056e0 <mini_itoa+0x5c>
    802056d8:	00000793          	li	a5,0
    802056dc:	1e80006f          	j	802058c4 <mini_itoa+0x240>
    802056e0:	fc843783          	ld	a5,-56(s0)
    802056e4:	0207d263          	bgez	a5,80205708 <mini_itoa+0x84>
    802056e8:	fbc42783          	lw	a5,-68(s0)
    802056ec:	0007879b          	sext.w	a5,a5
    802056f0:	00079c63          	bnez	a5,80205708 <mini_itoa+0x84>
    802056f4:	00100793          	li	a5,1
    802056f8:	fef42223          	sw	a5,-28(s0)
    802056fc:	fc843783          	ld	a5,-56(s0)
    80205700:	40f007b3          	neg	a5,a5
    80205704:	fcf43423          	sd	a5,-56(s0)
    80205708:	fc446783          	lwu	a5,-60(s0)
    8020570c:	fc843703          	ld	a4,-56(s0)
    80205710:	02f767b3          	rem	a5,a4,a5
    80205714:	fcf42e23          	sw	a5,-36(s0)
    80205718:	fdc42783          	lw	a5,-36(s0)
    8020571c:	0007871b          	sext.w	a4,a5
    80205720:	00900793          	li	a5,9
    80205724:	00e7cc63          	blt	a5,a4,8020573c <mini_itoa+0xb8>
    80205728:	fdc42783          	lw	a5,-36(s0)
    8020572c:	0ff7f793          	zext.b	a5,a5
    80205730:	0307879b          	addiw	a5,a5,48
    80205734:	0ff7f713          	zext.b	a4,a5
    80205738:	0340006f          	j	8020576c <mini_itoa+0xe8>
    8020573c:	fc042783          	lw	a5,-64(s0)
    80205740:	0007879b          	sext.w	a5,a5
    80205744:	00078663          	beqz	a5,80205750 <mini_itoa+0xcc>
    80205748:	04100793          	li	a5,65
    8020574c:	0080006f          	j	80205754 <mini_itoa+0xd0>
    80205750:	06100793          	li	a5,97
    80205754:	fdc42703          	lw	a4,-36(s0)
    80205758:	0ff77713          	zext.b	a4,a4
    8020575c:	00e787bb          	addw	a5,a5,a4
    80205760:	0ff7f793          	zext.b	a5,a5
    80205764:	ff67879b          	addiw	a5,a5,-10
    80205768:	0ff7f713          	zext.b	a4,a5
    8020576c:	fe843783          	ld	a5,-24(s0)
    80205770:	00178693          	addi	a3,a5,1
    80205774:	fed43423          	sd	a3,-24(s0)
    80205778:	00e78023          	sb	a4,0(a5)
    8020577c:	fc446783          	lwu	a5,-60(s0)
    80205780:	fc843703          	ld	a4,-56(s0)
    80205784:	02f747b3          	div	a5,a4,a5
    80205788:	fcf43423          	sd	a5,-56(s0)
    8020578c:	fc843783          	ld	a5,-56(s0)
    80205790:	f6f04ce3          	bgtz	a5,80205708 <mini_itoa+0x84>
    80205794:	fe843703          	ld	a4,-24(s0)
    80205798:	fb043783          	ld	a5,-80(s0)
    8020579c:	40f707b3          	sub	a5,a4,a5
    802057a0:	fef42023          	sw	a5,-32(s0)
    802057a4:	0240006f          	j	802057c8 <mini_itoa+0x144>
    802057a8:	fe843783          	ld	a5,-24(s0)
    802057ac:	00178713          	addi	a4,a5,1
    802057b0:	fee43423          	sd	a4,-24(s0)
    802057b4:	03000713          	li	a4,48
    802057b8:	00e78023          	sb	a4,0(a5)
    802057bc:	fe042783          	lw	a5,-32(s0)
    802057c0:	0017879b          	addiw	a5,a5,1
    802057c4:	fef42023          	sw	a5,-32(s0)
    802057c8:	fe042703          	lw	a4,-32(s0)
    802057cc:	fb842783          	lw	a5,-72(s0)
    802057d0:	0007071b          	sext.w	a4,a4
    802057d4:	0007879b          	sext.w	a5,a5
    802057d8:	fcf768e3          	bltu	a4,a5,802057a8 <mini_itoa+0x124>
    802057dc:	fe442783          	lw	a5,-28(s0)
    802057e0:	0007879b          	sext.w	a5,a5
    802057e4:	00078c63          	beqz	a5,802057fc <mini_itoa+0x178>
    802057e8:	fe843783          	ld	a5,-24(s0)
    802057ec:	00178713          	addi	a4,a5,1
    802057f0:	fee43423          	sd	a4,-24(s0)
    802057f4:	02d00713          	li	a4,45
    802057f8:	00e78023          	sb	a4,0(a5)
    802057fc:	fe843783          	ld	a5,-24(s0)
    80205800:	00078023          	sb	zero,0(a5)
    80205804:	fe843703          	ld	a4,-24(s0)
    80205808:	fb043783          	ld	a5,-80(s0)
    8020580c:	40f707b3          	sub	a5,a4,a5
    80205810:	fcf42c23          	sw	a5,-40(s0)
    80205814:	fe042023          	sw	zero,-32(s0)
    80205818:	0900006f          	j	802058a8 <mini_itoa+0x224>
    8020581c:	fe046783          	lwu	a5,-32(s0)
    80205820:	fb043703          	ld	a4,-80(s0)
    80205824:	00f707b3          	add	a5,a4,a5
    80205828:	0007c783          	lbu	a5,0(a5)
    8020582c:	fcf40ba3          	sb	a5,-41(s0)
    80205830:	fd842703          	lw	a4,-40(s0)
    80205834:	fe042783          	lw	a5,-32(s0)
    80205838:	40f707bb          	subw	a5,a4,a5
    8020583c:	0007879b          	sext.w	a5,a5
    80205840:	fff7879b          	addiw	a5,a5,-1
    80205844:	0007879b          	sext.w	a5,a5
    80205848:	02079793          	slli	a5,a5,0x20
    8020584c:	0207d793          	srli	a5,a5,0x20
    80205850:	fb043703          	ld	a4,-80(s0)
    80205854:	00f70733          	add	a4,a4,a5
    80205858:	fe046783          	lwu	a5,-32(s0)
    8020585c:	fb043683          	ld	a3,-80(s0)
    80205860:	00f687b3          	add	a5,a3,a5
    80205864:	00074703          	lbu	a4,0(a4)
    80205868:	00e78023          	sb	a4,0(a5)
    8020586c:	fd842703          	lw	a4,-40(s0)
    80205870:	fe042783          	lw	a5,-32(s0)
    80205874:	40f707bb          	subw	a5,a4,a5
    80205878:	0007879b          	sext.w	a5,a5
    8020587c:	fff7879b          	addiw	a5,a5,-1
    80205880:	0007879b          	sext.w	a5,a5
    80205884:	02079793          	slli	a5,a5,0x20
    80205888:	0207d793          	srli	a5,a5,0x20
    8020588c:	fb043703          	ld	a4,-80(s0)
    80205890:	00f707b3          	add	a5,a4,a5
    80205894:	fd744703          	lbu	a4,-41(s0)
    80205898:	00e78023          	sb	a4,0(a5)
    8020589c:	fe042783          	lw	a5,-32(s0)
    802058a0:	0017879b          	addiw	a5,a5,1
    802058a4:	fef42023          	sw	a5,-32(s0)
    802058a8:	fd842783          	lw	a5,-40(s0)
    802058ac:	0017d79b          	srliw	a5,a5,0x1
    802058b0:	0007871b          	sext.w	a4,a5
    802058b4:	fe042783          	lw	a5,-32(s0)
    802058b8:	0007879b          	sext.w	a5,a5
    802058bc:	f6e7e0e3          	bltu	a5,a4,8020581c <mini_itoa+0x198>
    802058c0:	fd842783          	lw	a5,-40(s0)
    802058c4:	00078513          	mv	a0,a5
    802058c8:	04813403          	ld	s0,72(sp)
    802058cc:	05010113          	addi	sp,sp,80
    802058d0:	00008067          	ret

00000000802058d4 <_putc>:
    802058d4:	fe010113          	addi	sp,sp,-32
    802058d8:	00813c23          	sd	s0,24(sp)
    802058dc:	02010413          	addi	s0,sp,32
    802058e0:	00050793          	mv	a5,a0
    802058e4:	feb43023          	sd	a1,-32(s0)
    802058e8:	fef42623          	sw	a5,-20(s0)
    802058ec:	fe043783          	ld	a5,-32(s0)
    802058f0:	0087b703          	ld	a4,8(a5)
    802058f4:	fe043783          	ld	a5,-32(s0)
    802058f8:	0007b783          	ld	a5,0(a5)
    802058fc:	40f707b3          	sub	a5,a4,a5
    80205900:	0007879b          	sext.w	a5,a5
    80205904:	0017879b          	addiw	a5,a5,1
    80205908:	0007871b          	sext.w	a4,a5
    8020590c:	fe043783          	ld	a5,-32(s0)
    80205910:	0107a783          	lw	a5,16(a5)
    80205914:	00f76663          	bltu	a4,a5,80205920 <_putc+0x4c>
    80205918:	00000793          	li	a5,0
    8020591c:	0340006f          	j	80205950 <_putc+0x7c>
    80205920:	fe043783          	ld	a5,-32(s0)
    80205924:	0087b783          	ld	a5,8(a5)
    80205928:	00178693          	addi	a3,a5,1
    8020592c:	fe043703          	ld	a4,-32(s0)
    80205930:	00d73423          	sd	a3,8(a4)
    80205934:	fec42703          	lw	a4,-20(s0)
    80205938:	0ff77713          	zext.b	a4,a4
    8020593c:	00e78023          	sb	a4,0(a5)
    80205940:	fe043783          	ld	a5,-32(s0)
    80205944:	0087b783          	ld	a5,8(a5)
    80205948:	00078023          	sb	zero,0(a5)
    8020594c:	00100793          	li	a5,1
    80205950:	00078513          	mv	a0,a5
    80205954:	01813403          	ld	s0,24(sp)
    80205958:	02010113          	addi	sp,sp,32
    8020595c:	00008067          	ret

0000000080205960 <_puts>:
    80205960:	fc010113          	addi	sp,sp,-64
    80205964:	02813c23          	sd	s0,56(sp)
    80205968:	04010413          	addi	s0,sp,64
    8020596c:	fca43c23          	sd	a0,-40(s0)
    80205970:	00058793          	mv	a5,a1
    80205974:	fcc43423          	sd	a2,-56(s0)
    80205978:	fcf42a23          	sw	a5,-44(s0)
    8020597c:	fc843783          	ld	a5,-56(s0)
    80205980:	0107a783          	lw	a5,16(a5)
    80205984:	02079713          	slli	a4,a5,0x20
    80205988:	02075713          	srli	a4,a4,0x20
    8020598c:	fc843783          	ld	a5,-56(s0)
    80205990:	0087b683          	ld	a3,8(a5)
    80205994:	fc843783          	ld	a5,-56(s0)
    80205998:	0007b783          	ld	a5,0(a5)
    8020599c:	40f687b3          	sub	a5,a3,a5
    802059a0:	40f70733          	sub	a4,a4,a5
    802059a4:	fd446783          	lwu	a5,-44(s0)
    802059a8:	02e7ca63          	blt	a5,a4,802059dc <_puts+0x7c>
    802059ac:	fc843783          	ld	a5,-56(s0)
    802059b0:	0107a703          	lw	a4,16(a5)
    802059b4:	fc843783          	ld	a5,-56(s0)
    802059b8:	0087b683          	ld	a3,8(a5)
    802059bc:	fc843783          	ld	a5,-56(s0)
    802059c0:	0007b783          	ld	a5,0(a5)
    802059c4:	40f687b3          	sub	a5,a3,a5
    802059c8:	0007879b          	sext.w	a5,a5
    802059cc:	40f707bb          	subw	a5,a4,a5
    802059d0:	0007879b          	sext.w	a5,a5
    802059d4:	fff7879b          	addiw	a5,a5,-1
    802059d8:	fcf42a23          	sw	a5,-44(s0)
    802059dc:	fe042623          	sw	zero,-20(s0)
    802059e0:	0380006f          	j	80205a18 <_puts+0xb8>
    802059e4:	fec46783          	lwu	a5,-20(s0)
    802059e8:	fd843703          	ld	a4,-40(s0)
    802059ec:	00f70733          	add	a4,a4,a5
    802059f0:	fc843783          	ld	a5,-56(s0)
    802059f4:	0087b783          	ld	a5,8(a5)
    802059f8:	00178613          	addi	a2,a5,1
    802059fc:	fc843683          	ld	a3,-56(s0)
    80205a00:	00c6b423          	sd	a2,8(a3)
    80205a04:	00074703          	lbu	a4,0(a4)
    80205a08:	00e78023          	sb	a4,0(a5)
    80205a0c:	fec42783          	lw	a5,-20(s0)
    80205a10:	0017879b          	addiw	a5,a5,1
    80205a14:	fef42623          	sw	a5,-20(s0)
    80205a18:	fec42703          	lw	a4,-20(s0)
    80205a1c:	fd442783          	lw	a5,-44(s0)
    80205a20:	0007071b          	sext.w	a4,a4
    80205a24:	0007879b          	sext.w	a5,a5
    80205a28:	faf76ee3          	bltu	a4,a5,802059e4 <_puts+0x84>
    80205a2c:	fc843783          	ld	a5,-56(s0)
    80205a30:	0087b783          	ld	a5,8(a5)
    80205a34:	00078023          	sb	zero,0(a5)
    80205a38:	fd442783          	lw	a5,-44(s0)
    80205a3c:	00078513          	mv	a0,a5
    80205a40:	03813403          	ld	s0,56(sp)
    80205a44:	04010113          	addi	sp,sp,64
    80205a48:	00008067          	ret

0000000080205a4c <mini_vsnprintf>:
    80205a4c:	f8010113          	addi	sp,sp,-128
    80205a50:	06113c23          	sd	ra,120(sp)
    80205a54:	06813823          	sd	s0,112(sp)
    80205a58:	08010413          	addi	s0,sp,128
    80205a5c:	f8a43c23          	sd	a0,-104(s0)
    80205a60:	00058793          	mv	a5,a1
    80205a64:	f8c43423          	sd	a2,-120(s0)
    80205a68:	f8d43023          	sd	a3,-128(s0)
    80205a6c:	f8f42a23          	sw	a5,-108(s0)
    80205a70:	f9843783          	ld	a5,-104(s0)
    80205a74:	fcf43023          	sd	a5,-64(s0)
    80205a78:	f9843783          	ld	a5,-104(s0)
    80205a7c:	fcf43423          	sd	a5,-56(s0)
    80205a80:	f9442783          	lw	a5,-108(s0)
    80205a84:	fcf42823          	sw	a5,-48(s0)
    80205a88:	3580006f          	j	80205de0 <mini_vsnprintf+0x394>
    80205a8c:	fc843703          	ld	a4,-56(s0)
    80205a90:	fc043783          	ld	a5,-64(s0)
    80205a94:	40f707b3          	sub	a5,a4,a5
    80205a98:	0007879b          	sext.w	a5,a5
    80205a9c:	0017879b          	addiw	a5,a5,1
    80205aa0:	0007871b          	sext.w	a4,a5
    80205aa4:	fd042783          	lw	a5,-48(s0)
    80205aa8:	34f77e63          	bgeu	a4,a5,80205e04 <mini_vsnprintf+0x3b8>
    80205aac:	fef44783          	lbu	a5,-17(s0)
    80205ab0:	0ff7f713          	zext.b	a4,a5
    80205ab4:	02500793          	li	a5,37
    80205ab8:	02f70063          	beq	a4,a5,80205ad8 <mini_vsnprintf+0x8c>
    80205abc:	fef44783          	lbu	a5,-17(s0)
    80205ac0:	0007879b          	sext.w	a5,a5
    80205ac4:	fc040713          	addi	a4,s0,-64
    80205ac8:	00070593          	mv	a1,a4
    80205acc:	00078513          	mv	a0,a5
    80205ad0:	e05ff0ef          	jal	ra,802058d4 <_putc>
    80205ad4:	30c0006f          	j	80205de0 <mini_vsnprintf+0x394>
    80205ad8:	fe040723          	sb	zero,-18(s0)
    80205adc:	fe042423          	sw	zero,-24(s0)
    80205ae0:	f8843783          	ld	a5,-120(s0)
    80205ae4:	00178713          	addi	a4,a5,1
    80205ae8:	f8e43423          	sd	a4,-120(s0)
    80205aec:	0007c783          	lbu	a5,0(a5)
    80205af0:	fef407a3          	sb	a5,-17(s0)
    80205af4:	fef44783          	lbu	a5,-17(s0)
    80205af8:	0ff7f713          	zext.b	a4,a5
    80205afc:	03000793          	li	a5,48
    80205b00:	08f71063          	bne	a4,a5,80205b80 <mini_vsnprintf+0x134>
    80205b04:	05c0006f          	j	80205b60 <mini_vsnprintf+0x114>
    80205b08:	fef44783          	lbu	a5,-17(s0)
    80205b0c:	0ff7f793          	zext.b	a5,a5
    80205b10:	2e078e63          	beqz	a5,80205e0c <mini_vsnprintf+0x3c0>
    80205b14:	fef44783          	lbu	a5,-17(s0)
    80205b18:	0ff7f713          	zext.b	a4,a5
    80205b1c:	02f00793          	li	a5,47
    80205b20:	06e7f063          	bgeu	a5,a4,80205b80 <mini_vsnprintf+0x134>
    80205b24:	fef44783          	lbu	a5,-17(s0)
    80205b28:	0ff7f713          	zext.b	a4,a5
    80205b2c:	03900793          	li	a5,57
    80205b30:	04e7e863          	bltu	a5,a4,80205b80 <mini_vsnprintf+0x134>
    80205b34:	fee44703          	lbu	a4,-18(s0)
    80205b38:	00070793          	mv	a5,a4
    80205b3c:	0027979b          	slliw	a5,a5,0x2
    80205b40:	00e787bb          	addw	a5,a5,a4
    80205b44:	0017979b          	slliw	a5,a5,0x1
    80205b48:	0ff7f793          	zext.b	a5,a5
    80205b4c:	fef44703          	lbu	a4,-17(s0)
    80205b50:	00f707bb          	addw	a5,a4,a5
    80205b54:	0ff7f793          	zext.b	a5,a5
    80205b58:	fd07879b          	addiw	a5,a5,-48
    80205b5c:	fef40723          	sb	a5,-18(s0)
    80205b60:	f8843783          	ld	a5,-120(s0)
    80205b64:	00178713          	addi	a4,a5,1
    80205b68:	f8e43423          	sd	a4,-120(s0)
    80205b6c:	0007c783          	lbu	a5,0(a5)
    80205b70:	fef407a3          	sb	a5,-17(s0)
    80205b74:	fef44783          	lbu	a5,-17(s0)
    80205b78:	0ff7f793          	zext.b	a5,a5
    80205b7c:	f80796e3          	bnez	a5,80205b08 <mini_vsnprintf+0xbc>
    80205b80:	fef44783          	lbu	a5,-17(s0)
    80205b84:	0ff7f713          	zext.b	a4,a5
    80205b88:	06c00793          	li	a5,108
    80205b8c:	02f71063          	bne	a4,a5,80205bac <mini_vsnprintf+0x160>
    80205b90:	00100793          	li	a5,1
    80205b94:	fef42423          	sw	a5,-24(s0)
    80205b98:	f8843783          	ld	a5,-120(s0)
    80205b9c:	00178713          	addi	a4,a5,1
    80205ba0:	f8e43423          	sd	a4,-120(s0)
    80205ba4:	0007c783          	lbu	a5,0(a5)
    80205ba8:	fef407a3          	sb	a5,-17(s0)
    80205bac:	fef44783          	lbu	a5,-17(s0)
    80205bb0:	0007879b          	sext.w	a5,a5
    80205bb4:	26078063          	beqz	a5,80205e14 <mini_vsnprintf+0x3c8>
    80205bb8:	00078713          	mv	a4,a5
    80205bbc:	20074463          	bltz	a4,80205dc4 <mini_vsnprintf+0x378>
    80205bc0:	00078693          	mv	a3,a5
    80205bc4:	07800713          	li	a4,120
    80205bc8:	1ed74e63          	blt	a4,a3,80205dc4 <mini_vsnprintf+0x378>
    80205bcc:	00078693          	mv	a3,a5
    80205bd0:	05800713          	li	a4,88
    80205bd4:	1ee6c863          	blt	a3,a4,80205dc4 <mini_vsnprintf+0x378>
    80205bd8:	fa87869b          	addiw	a3,a5,-88
    80205bdc:	0006871b          	sext.w	a4,a3
    80205be0:	02000793          	li	a5,32
    80205be4:	1ee7e063          	bltu	a5,a4,80205dc4 <mini_vsnprintf+0x378>
    80205be8:	02069793          	slli	a5,a3,0x20
    80205bec:	0207d793          	srli	a5,a5,0x20
    80205bf0:	00279713          	slli	a4,a5,0x2
    80205bf4:	00000797          	auipc	a5,0x0
    80205bf8:	4e078793          	addi	a5,a5,1248 # 802060d4 <__RODATA_BEGIN__+0x19c>
    80205bfc:	00f707b3          	add	a5,a4,a5
    80205c00:	0007a783          	lw	a5,0(a5)
    80205c04:	0007871b          	sext.w	a4,a5
    80205c08:	00000797          	auipc	a5,0x0
    80205c0c:	4cc78793          	addi	a5,a5,1228 # 802060d4 <__RODATA_BEGIN__+0x19c>
    80205c10:	00f707b3          	add	a5,a4,a5
    80205c14:	00078067          	jr	a5
    80205c18:	00100793          	li	a5,1
    80205c1c:	fef42423          	sw	a5,-24(s0)
    80205c20:	1c00006f          	j	80205de0 <mini_vsnprintf+0x394>
    80205c24:	fe842783          	lw	a5,-24(s0)
    80205c28:	0007879b          	sext.w	a5,a5
    80205c2c:	02079063          	bnez	a5,80205c4c <mini_vsnprintf+0x200>
    80205c30:	f8043783          	ld	a5,-128(s0)
    80205c34:	00878713          	addi	a4,a5,8
    80205c38:	f8e43023          	sd	a4,-128(s0)
    80205c3c:	0007a783          	lw	a5,0(a5)
    80205c40:	02079513          	slli	a0,a5,0x20
    80205c44:	02055513          	srli	a0,a0,0x20
    80205c48:	0180006f          	j	80205c60 <mini_vsnprintf+0x214>
    80205c4c:	f8043783          	ld	a5,-128(s0)
    80205c50:	00878713          	addi	a4,a5,8
    80205c54:	f8e43023          	sd	a4,-128(s0)
    80205c58:	0007b783          	ld	a5,0(a5)
    80205c5c:	00078513          	mv	a0,a5
    80205c60:	fef44783          	lbu	a5,-17(s0)
    80205c64:	0007871b          	sext.w	a4,a5
    80205c68:	07500793          	li	a5,117
    80205c6c:	40f707b3          	sub	a5,a4,a5
    80205c70:	0017b793          	seqz	a5,a5
    80205c74:	0ff7f793          	zext.b	a5,a5
    80205c78:	0007869b          	sext.w	a3,a5
    80205c7c:	fee44783          	lbu	a5,-18(s0)
    80205c80:	0007879b          	sext.w	a5,a5
    80205c84:	fa840713          	addi	a4,s0,-88
    80205c88:	00000613          	li	a2,0
    80205c8c:	00a00593          	li	a1,10
    80205c90:	9f5ff0ef          	jal	ra,80205684 <mini_itoa>
    80205c94:	00050793          	mv	a5,a0
    80205c98:	fcf42e23          	sw	a5,-36(s0)
    80205c9c:	fc040693          	addi	a3,s0,-64
    80205ca0:	fdc42703          	lw	a4,-36(s0)
    80205ca4:	fa840793          	addi	a5,s0,-88
    80205ca8:	00068613          	mv	a2,a3
    80205cac:	00070593          	mv	a1,a4
    80205cb0:	00078513          	mv	a0,a5
    80205cb4:	cadff0ef          	jal	ra,80205960 <_puts>
    80205cb8:	fe042423          	sw	zero,-24(s0)
    80205cbc:	1240006f          	j	80205de0 <mini_vsnprintf+0x394>
    80205cc0:	fe842783          	lw	a5,-24(s0)
    80205cc4:	0007879b          	sext.w	a5,a5
    80205cc8:	02079063          	bnez	a5,80205ce8 <mini_vsnprintf+0x29c>
    80205ccc:	f8043783          	ld	a5,-128(s0)
    80205cd0:	00878713          	addi	a4,a5,8
    80205cd4:	f8e43023          	sd	a4,-128(s0)
    80205cd8:	0007a783          	lw	a5,0(a5)
    80205cdc:	02079513          	slli	a0,a5,0x20
    80205ce0:	02055513          	srli	a0,a0,0x20
    80205ce4:	0180006f          	j	80205cfc <mini_vsnprintf+0x2b0>
    80205ce8:	f8043783          	ld	a5,-128(s0)
    80205cec:	00878713          	addi	a4,a5,8
    80205cf0:	f8e43023          	sd	a4,-128(s0)
    80205cf4:	0007b783          	ld	a5,0(a5)
    80205cf8:	00078513          	mv	a0,a5
    80205cfc:	fef44783          	lbu	a5,-17(s0)
    80205d00:	0007871b          	sext.w	a4,a5
    80205d04:	05800793          	li	a5,88
    80205d08:	40f707b3          	sub	a5,a4,a5
    80205d0c:	0017b793          	seqz	a5,a5
    80205d10:	0ff7f793          	zext.b	a5,a5
    80205d14:	0007861b          	sext.w	a2,a5
    80205d18:	fee44783          	lbu	a5,-18(s0)
    80205d1c:	0007879b          	sext.w	a5,a5
    80205d20:	fa840713          	addi	a4,s0,-88
    80205d24:	00100693          	li	a3,1
    80205d28:	01000593          	li	a1,16
    80205d2c:	959ff0ef          	jal	ra,80205684 <mini_itoa>
    80205d30:	00050793          	mv	a5,a0
    80205d34:	fcf42e23          	sw	a5,-36(s0)
    80205d38:	fc040693          	addi	a3,s0,-64
    80205d3c:	fdc42703          	lw	a4,-36(s0)
    80205d40:	fa840793          	addi	a5,s0,-88
    80205d44:	00068613          	mv	a2,a3
    80205d48:	00070593          	mv	a1,a4
    80205d4c:	00078513          	mv	a0,a5
    80205d50:	c11ff0ef          	jal	ra,80205960 <_puts>
    80205d54:	fe042423          	sw	zero,-24(s0)
    80205d58:	0880006f          	j	80205de0 <mini_vsnprintf+0x394>
    80205d5c:	f8043783          	ld	a5,-128(s0)
    80205d60:	00878713          	addi	a4,a5,8
    80205d64:	f8e43023          	sd	a4,-128(s0)
    80205d68:	0007a783          	lw	a5,0(a5)
    80205d6c:	0ff7f793          	zext.b	a5,a5
    80205d70:	0007879b          	sext.w	a5,a5
    80205d74:	fc040713          	addi	a4,s0,-64
    80205d78:	00070593          	mv	a1,a4
    80205d7c:	00078513          	mv	a0,a5
    80205d80:	b55ff0ef          	jal	ra,802058d4 <_putc>
    80205d84:	05c0006f          	j	80205de0 <mini_vsnprintf+0x394>
    80205d88:	f8043783          	ld	a5,-128(s0)
    80205d8c:	00878713          	addi	a4,a5,8
    80205d90:	f8e43023          	sd	a4,-128(s0)
    80205d94:	0007b783          	ld	a5,0(a5)
    80205d98:	fef43023          	sd	a5,-32(s0)
    80205d9c:	fe043503          	ld	a0,-32(s0)
    80205da0:	b65fa0ef          	jal	ra,80200904 <strlen>
    80205da4:	00050793          	mv	a5,a0
    80205da8:	0007879b          	sext.w	a5,a5
    80205dac:	fc040713          	addi	a4,s0,-64
    80205db0:	00070613          	mv	a2,a4
    80205db4:	00078593          	mv	a1,a5
    80205db8:	fe043503          	ld	a0,-32(s0)
    80205dbc:	ba5ff0ef          	jal	ra,80205960 <_puts>
    80205dc0:	0200006f          	j	80205de0 <mini_vsnprintf+0x394>
    80205dc4:	fef44783          	lbu	a5,-17(s0)
    80205dc8:	0007879b          	sext.w	a5,a5
    80205dcc:	fc040713          	addi	a4,s0,-64
    80205dd0:	00070593          	mv	a1,a4
    80205dd4:	00078513          	mv	a0,a5
    80205dd8:	afdff0ef          	jal	ra,802058d4 <_putc>
    80205ddc:	00000013          	nop
    80205de0:	f8843783          	ld	a5,-120(s0)
    80205de4:	00178713          	addi	a4,a5,1
    80205de8:	f8e43423          	sd	a4,-120(s0)
    80205dec:	0007c783          	lbu	a5,0(a5)
    80205df0:	fef407a3          	sb	a5,-17(s0)
    80205df4:	fef44783          	lbu	a5,-17(s0)
    80205df8:	0ff7f793          	zext.b	a5,a5
    80205dfc:	c80798e3          	bnez	a5,80205a8c <mini_vsnprintf+0x40>
    80205e00:	0180006f          	j	80205e18 <mini_vsnprintf+0x3cc>
    80205e04:	00000013          	nop
    80205e08:	0100006f          	j	80205e18 <mini_vsnprintf+0x3cc>
    80205e0c:	00000013          	nop
    80205e10:	0080006f          	j	80205e18 <mini_vsnprintf+0x3cc>
    80205e14:	00000013          	nop
    80205e18:	fc843703          	ld	a4,-56(s0)
    80205e1c:	fc043783          	ld	a5,-64(s0)
    80205e20:	40f707b3          	sub	a5,a4,a5
    80205e24:	0007879b          	sext.w	a5,a5
    80205e28:	00078513          	mv	a0,a5
    80205e2c:	07813083          	ld	ra,120(sp)
    80205e30:	07013403          	ld	s0,112(sp)
    80205e34:	08010113          	addi	sp,sp,128
    80205e38:	00008067          	ret

0000000080205e3c <vprintf>:
    80205e3c:	ed010113          	addi	sp,sp,-304
    80205e40:	12113423          	sd	ra,296(sp)
    80205e44:	12813023          	sd	s0,288(sp)
    80205e48:	13010413          	addi	s0,sp,304
    80205e4c:	eca43c23          	sd	a0,-296(s0)
    80205e50:	ecb43823          	sd	a1,-304(s0)
    80205e54:	ed043783          	ld	a5,-304(s0)
    80205e58:	fef43023          	sd	a5,-32(s0)
    80205e5c:	fe043703          	ld	a4,-32(s0)
    80205e60:	ee040793          	addi	a5,s0,-288
    80205e64:	00070693          	mv	a3,a4
    80205e68:	ed843603          	ld	a2,-296(s0)
    80205e6c:	10000593          	li	a1,256
    80205e70:	00078513          	mv	a0,a5
    80205e74:	bd9ff0ef          	jal	ra,80205a4c <mini_vsnprintf>
    80205e78:	00050793          	mv	a5,a0
    80205e7c:	fef42623          	sw	a5,-20(s0)
    80205e80:	fec42783          	lw	a5,-20(s0)
    80205e84:	ff040713          	addi	a4,s0,-16
    80205e88:	00f707b3          	add	a5,a4,a5
    80205e8c:	ee078823          	sb	zero,-272(a5)
    80205e90:	ee040793          	addi	a5,s0,-288
    80205e94:	00000693          	li	a3,0
    80205e98:	00000613          	li	a2,0
    80205e9c:	00078593          	mv	a1,a5
    80205ea0:	00300513          	li	a0,3
    80205ea4:	a80fe0ef          	jal	ra,80204124 <dasics_umaincall>
    80205ea8:	fec42783          	lw	a5,-20(s0)
    80205eac:	00078513          	mv	a0,a5
    80205eb0:	12813083          	ld	ra,296(sp)
    80205eb4:	12013403          	ld	s0,288(sp)
    80205eb8:	13010113          	addi	sp,sp,304
    80205ebc:	00008067          	ret

0000000080205ec0 <printf>:
    80205ec0:	f9010113          	addi	sp,sp,-112
    80205ec4:	02113423          	sd	ra,40(sp)
    80205ec8:	02813023          	sd	s0,32(sp)
    80205ecc:	03010413          	addi	s0,sp,48
    80205ed0:	fca43c23          	sd	a0,-40(s0)
    80205ed4:	00b43423          	sd	a1,8(s0)
    80205ed8:	00c43823          	sd	a2,16(s0)
    80205edc:	00d43c23          	sd	a3,24(s0)
    80205ee0:	02e43023          	sd	a4,32(s0)
    80205ee4:	02f43423          	sd	a5,40(s0)
    80205ee8:	03043823          	sd	a6,48(s0)
    80205eec:	03143c23          	sd	a7,56(s0)
    80205ef0:	fe042623          	sw	zero,-20(s0)
    80205ef4:	04040793          	addi	a5,s0,64
    80205ef8:	fcf43823          	sd	a5,-48(s0)
    80205efc:	fd043783          	ld	a5,-48(s0)
    80205f00:	fc878793          	addi	a5,a5,-56
    80205f04:	fef43023          	sd	a5,-32(s0)
    80205f08:	fe043783          	ld	a5,-32(s0)
    80205f0c:	00078593          	mv	a1,a5
    80205f10:	fd843503          	ld	a0,-40(s0)
    80205f14:	f29ff0ef          	jal	ra,80205e3c <vprintf>
    80205f18:	00050793          	mv	a5,a0
    80205f1c:	fef42623          	sw	a5,-20(s0)
    80205f20:	fec42783          	lw	a5,-20(s0)
    80205f24:	00078513          	mv	a0,a5
    80205f28:	02813083          	ld	ra,40(sp)
    80205f2c:	02013403          	ld	s0,32(sp)
    80205f30:	07010113          	addi	sp,sp,112
    80205f34:	00008067          	ret
